
ifelse:     file format elf32-littlearm


Disassembly of section .init:

00010158 <_init>:
   10158:	e92d4008 	push	{r3, lr}
   1015c:	eb000022 	bl	101ec <call_weak_fn>
   10160:	e8bd8008 	pop	{r3, pc}

Disassembly of section .text:

00010170 <backtrace_and_maps.constprop.0>:
   10170:	e12fff1e 	bx	lr

00010174 <oom>:
   10174:	e3a00002 	mov	r0, #2
   10178:	e92d4010 	push	{r4, lr}
   1017c:	e59f1008 	ldr	r1, [pc, #8]	; 1018c <oom+0x18>
   10180:	eb010efc 	bl	53d78 <_dl_dprintf>
   10184:	e3a0007f 	mov	r0, #127	; 0x7f
   10188:	eb005ed9 	bl	27cf4 <_exit>
   1018c:	00071804 	.word	0x00071804

00010190 <_Unwind_GetDataRelBase>:
   10190:	e92d4010 	push	{r4, lr}
   10194:	eb00155f 	bl	15718 <abort>

00010198 <_Unwind_GetTextRelBase>:
   10198:	e92d4010 	push	{r4, lr}
   1019c:	ebfffffb 	bl	10190 <_Unwind_GetDataRelBase>

000101a0 <fini>:
   101a0:	e59f3004 	ldr	r3, [pc, #4]	; 101ac <fini+0xc>
   101a4:	e5930014 	ldr	r0, [r3, #20]
   101a8:	ea0122ce 	b	58ce8 <check_free.isra.0>
   101ac:	000875a8 	.word	0x000875a8

000101b0 <_start>:
   101b0:	e3a0b000 	mov	fp, #0
   101b4:	e3a0e000 	mov	lr, #0
   101b8:	e49d1004 	pop	{r1}		; (ldr r1, [sp], #4)
   101bc:	e1a0200d 	mov	r2, sp
   101c0:	e52d2004 	push	{r2}		; (str r2, [sp, #-4]!)
   101c4:	e52d0004 	push	{r0}		; (str r0, [sp, #-4]!)
   101c8:	e59fc010 	ldr	ip, [pc, #16]	; 101e0 <_start+0x30>
   101cc:	e52dc004 	push	{ip}		; (str ip, [sp, #-4]!)
   101d0:	e59f000c 	ldr	r0, [pc, #12]	; 101e4 <_start+0x34>
   101d4:	e59f300c 	ldr	r3, [pc, #12]	; 101e8 <_start+0x38>
   101d8:	eb000056 	bl	10338 <__libc_start_main>
   101dc:	eb00154d 	bl	15718 <abort>
   101e0:	00010af0 	.word	0x00010af0
   101e4:	000102ec 	.word	0x000102ec
   101e8:	00010a50 	.word	0x00010a50

000101ec <call_weak_fn>:
   101ec:	e59f3014 	ldr	r3, [pc, #20]	; 10208 <call_weak_fn+0x1c>
   101f0:	e59f2014 	ldr	r2, [pc, #20]	; 1020c <call_weak_fn+0x20>
   101f4:	e08f3003 	add	r3, pc, r3
   101f8:	e7932002 	ldr	r2, [r3, r2]
   101fc:	e3520000 	cmp	r2, #0
   10200:	012fff1e 	bxeq	lr
   10204:	e1a00000 	nop			; (mov r0, r0)
   10208:	00075e04 	.word	0x00075e04
   1020c:	00000080 	.word	0x00000080

00010210 <deregister_tm_clones>:
   10210:	e59f0018 	ldr	r0, [pc, #24]	; 10230 <deregister_tm_clones+0x20>
   10214:	e59f3018 	ldr	r3, [pc, #24]	; 10234 <deregister_tm_clones+0x24>
   10218:	e1530000 	cmp	r3, r0
   1021c:	012fff1e 	bxeq	lr
   10220:	e59f3010 	ldr	r3, [pc, #16]	; 10238 <deregister_tm_clones+0x28>
   10224:	e3530000 	cmp	r3, #0
   10228:	012fff1e 	bxeq	lr
   1022c:	e12fff13 	bx	r3
   10230:	00086ee0 	.word	0x00086ee0
   10234:	00086ee0 	.word	0x00086ee0
   10238:	00000000 	.word	0x00000000

0001023c <register_tm_clones>:
   1023c:	e59f0024 	ldr	r0, [pc, #36]	; 10268 <register_tm_clones+0x2c>
   10240:	e59f1024 	ldr	r1, [pc, #36]	; 1026c <register_tm_clones+0x30>
   10244:	e0411000 	sub	r1, r1, r0
   10248:	e1a01141 	asr	r1, r1, #2
   1024c:	e0811fa1 	add	r1, r1, r1, lsr #31
   10250:	e1b010c1 	asrs	r1, r1, #1
   10254:	012fff1e 	bxeq	lr
   10258:	e59f3010 	ldr	r3, [pc, #16]	; 10270 <register_tm_clones+0x34>
   1025c:	e3530000 	cmp	r3, #0
   10260:	012fff1e 	bxeq	lr
   10264:	e12fff13 	bx	r3
   10268:	00086ee0 	.word	0x00086ee0
   1026c:	00086ee0 	.word	0x00086ee0
   10270:	00000000 	.word	0x00000000

00010274 <__do_global_dtors_aux>:
   10274:	e92d4010 	push	{r4, lr}
   10278:	e59f402c 	ldr	r4, [pc, #44]	; 102ac <__do_global_dtors_aux+0x38>
   1027c:	e5d43000 	ldrb	r3, [r4]
   10280:	e3530000 	cmp	r3, #0
   10284:	18bd8010 	popne	{r4, pc}
   10288:	ebffffe0 	bl	10210 <deregister_tm_clones>
   1028c:	e59f301c 	ldr	r3, [pc, #28]	; 102b0 <__do_global_dtors_aux+0x3c>
   10290:	e3530000 	cmp	r3, #0
   10294:	0a000001 	beq	102a0 <__do_global_dtors_aux+0x2c>
   10298:	e59f0014 	ldr	r0, [pc, #20]	; 102b4 <__do_global_dtors_aux+0x40>
   1029c:	e1a00000 	nop			; (mov r0, r0)
   102a0:	e3a03001 	mov	r3, #1
   102a4:	e5c43000 	strb	r3, [r4]
   102a8:	e8bd8010 	pop	{r4, pc}
   102ac:	00086ee0 	.word	0x00086ee0
   102b0:	00000000 	.word	0x00000000
   102b4:	000759bc 	.word	0x000759bc

000102b8 <frame_dummy>:
   102b8:	e59f3020 	ldr	r3, [pc, #32]	; 102e0 <frame_dummy+0x28>
   102bc:	e3530000 	cmp	r3, #0
   102c0:	0a000005 	beq	102dc <frame_dummy+0x24>
   102c4:	e92d4010 	push	{r4, lr}
   102c8:	e59f1014 	ldr	r1, [pc, #20]	; 102e4 <frame_dummy+0x2c>
   102cc:	e59f0014 	ldr	r0, [pc, #20]	; 102e8 <frame_dummy+0x30>
   102d0:	e1a00000 	nop			; (mov r0, r0)
   102d4:	e8bd4010 	pop	{r4, lr}
   102d8:	eaffffd7 	b	1023c <register_tm_clones>
   102dc:	eaffffd6 	b	1023c <register_tm_clones>
   102e0:	00000000 	.word	0x00000000
   102e4:	00086ee4 	.word	0x00086ee4
   102e8:	000759bc 	.word	0x000759bc

000102ec <main>:
#include <stdio.h>

int main() {
   102ec:	e92d4800 	push	{fp, lr}
   102f0:	e28db004 	add	fp, sp, #4
   102f4:	e24dd008 	sub	sp, sp, #8
	volatile int flag = 0;
   102f8:	e3a03000 	mov	r3, #0
   102fc:	e50b3008 	str	r3, [fp, #-8]
	if (flag == 0)
   10300:	e51b3008 	ldr	r3, [fp, #-8]
   10304:	e3530000 	cmp	r3, #0
   10308:	1a000002 	bne	10318 <main+0x2c>
		printf("NO BEER\n");
   1030c:	e59f001c 	ldr	r0, [pc, #28]	; 10330 <main+0x44>
   10310:	eb001dad 	bl	179cc <_IO_puts>
   10314:	ea000001 	b	10320 <main+0x34>
	else
		printf("FREE BEER\n");
   10318:	e59f0014 	ldr	r0, [pc, #20]	; 10334 <main+0x48>
   1031c:	eb001daa 	bl	179cc <_IO_puts>
	return 0;
   10320:	e3a03000 	mov	r3, #0
}
   10324:	e1a00003 	mov	r0, r3
   10328:	e24bd004 	sub	sp, fp, #4
   1032c:	e8bd8800 	pop	{fp, pc}
   10330:	00060b0c 	.word	0x00060b0c
   10334:	00060b14 	.word	0x00060b14

00010338 <__libc_start_main>:
   10338:	e59fc320 	ldr	ip, [pc, #800]	; 10660 <__libc_start_main+0x328>
   1033c:	e1a04003 	mov	r4, r3
   10340:	e35c0000 	cmp	ip, #0
   10344:	159c3000 	ldrne	r3, [ip]
   10348:	01a0300c 	moveq	r3, ip
   1034c:	116f3f13 	clzne	r3, r3
   10350:	e92d4080 	push	{r7, lr}
   10354:	e24ddf4a 	sub	sp, sp, #296	; 0x128
   10358:	e98d0006 	stmib	sp, {r1, r2}
   1035c:	e59d2004 	ldr	r2, [sp, #4]
   10360:	e59de008 	ldr	lr, [sp, #8]
   10364:	e58d000c 	str	r0, [sp, #12]
   10368:	e2820001 	add	r0, r2, #1
   1036c:	e59f22f0 	ldr	r2, [pc, #752]	; 10664 <__libc_start_main+0x32c>
   10370:	e08e0100 	add	r0, lr, r0, lsl #2
   10374:	e5820000 	str	r0, [r2]
   10378:	e59d1138 	ldr	r1, [sp, #312]	; 0x138
   1037c:	e59fc2e4 	ldr	ip, [pc, #740]	; 10668 <__libc_start_main+0x330>
   10380:	e59f22e4 	ldr	r2, [pc, #740]	; 1066c <__libc_start_main+0x334>
   10384:	11a032a3 	lsrne	r3, r3, #5
   10388:	e58c3000 	str	r3, [ip]
   1038c:	e5821000 	str	r1, [r2]
   10390:	e4903004 	ldr	r3, [r0], #4
   10394:	e3530000 	cmp	r3, #0
   10398:	1afffffc 	bne	10390 <__libc_start_main+0x58>
   1039c:	eb006bd7 	bl	2b300 <_dl_aux_init>
   103a0:	e59f32c8 	ldr	r3, [pc, #712]	; 10670 <__libc_start_main+0x338>
   103a4:	e59f22c8 	ldr	r2, [pc, #712]	; 10674 <__libc_start_main+0x33c>
   103a8:	e5933000 	ldr	r3, [r3]
   103ac:	e3520000 	cmp	r2, #0
   103b0:	e16f3f13 	clz	r3, r3
   103b4:	e3a01001 	mov	r1, #1
   103b8:	01a01002 	moveq	r1, r2
   103bc:	e1a032a3 	lsr	r3, r3, #5
   103c0:	e1130001 	tst	r3, r1
   103c4:	1a000014 	bne	1041c <__libc_start_main+0xe4>
   103c8:	eb006f35 	bl	2c0a4 <__libc_init_secure>
   103cc:	e59f3290 	ldr	r3, [pc, #656]	; 10664 <__libc_start_main+0x32c>
   103d0:	e59f52a0 	ldr	r5, [pc, #672]	; 10678 <__libc_start_main+0x340>
   103d4:	e5930000 	ldr	r0, [r3]
   103d8:	eb006a4a 	bl	2ad08 <__tunables_init>
   103dc:	e59f7298 	ldr	r7, [pc, #664]	; 1067c <__libc_start_main+0x344>
   103e0:	e59f6298 	ldr	r6, [pc, #664]	; 10680 <__libc_start_main+0x348>
   103e4:	ea000004 	b	103fc <__libc_start_main+0xc4>
   103e8:	e5983000 	ldr	r3, [r8]
   103ec:	e5960000 	ldr	r0, [r6]
   103f0:	e12fff33 	blx	r3
   103f4:	e2855008 	add	r5, r5, #8
   103f8:	e5880000 	str	r0, [r8]
   103fc:	e1550007 	cmp	r5, r7
   10400:	2a000016 	bcs	10460 <__libc_start_main+0x128>
   10404:	e5d53004 	ldrb	r3, [r5, #4]
   10408:	e5958000 	ldr	r8, [r5]
   1040c:	e35300a0 	cmp	r3, #160	; 0xa0
   10410:	0afffff4 	beq	103e8 <__libc_start_main+0xb0>
   10414:	e59f0268 	ldr	r0, [pc, #616]	; 10684 <__libc_start_main+0x34c>
   10418:	eb0025fe 	bl	19c18 <__libc_fatal>
   1041c:	e59f3250 	ldr	r3, [pc, #592]	; 10674 <__libc_start_main+0x33c>
   10420:	e1d322ba 	ldrh	r2, [r3, #42]	; 0x2a
   10424:	e3520020 	cmp	r2, #32
   10428:	0a000004 	beq	10440 <__libc_start_main+0x108>
   1042c:	e59f3254 	ldr	r3, [pc, #596]	; 10688 <__libc_start_main+0x350>
   10430:	e3a020b4 	mov	r2, #180	; 0xb4
   10434:	e59f1250 	ldr	r1, [pc, #592]	; 1068c <__libc_start_main+0x354>
   10438:	e59f0250 	ldr	r0, [pc, #592]	; 10690 <__libc_start_main+0x358>
   1043c:	eb00022c 	bl	10cf4 <__assert_fail>
   10440:	e593201c 	ldr	r2, [r3, #28]
   10444:	e1d312bc 	ldrh	r1, [r3, #44]	; 0x2c
   10448:	e59f0220 	ldr	r0, [pc, #544]	; 10670 <__libc_start_main+0x338>
   1044c:	e0823003 	add	r3, r2, r3
   10450:	e59f223c 	ldr	r2, [pc, #572]	; 10694 <__libc_start_main+0x35c>
   10454:	e5803000 	str	r3, [r0]
   10458:	e5821000 	str	r1, [r2]
   1045c:	eaffffd9 	b	103c8 <__libc_start_main+0x90>
   10460:	eb0000d2 	bl	107b0 <__libc_setup_tls>
   10464:	e59f222c 	ldr	r2, [pc, #556]	; 10698 <__libc_start_main+0x360>
   10468:	e59f31f8 	ldr	r3, [pc, #504]	; 10668 <__libc_start_main+0x330>
   1046c:	e5922000 	ldr	r2, [r2]
   10470:	e5931000 	ldr	r1, [r3]
   10474:	e5d20001 	ldrb	r0, [r2, #1]
   10478:	e5d23000 	ldrb	r3, [r2]
   1047c:	e3510000 	cmp	r1, #0
   10480:	e5d21002 	ldrb	r1, [r2, #2]
   10484:	e1833400 	orr	r3, r3, r0, lsl #8
   10488:	e5d22003 	ldrb	r2, [r2, #3]
   1048c:	e1833801 	orr	r3, r3, r1, lsl #16
   10490:	e1833c02 	orr	r3, r3, r2, lsl #24
   10494:	e59f2200 	ldr	r2, [pc, #512]	; 1069c <__libc_start_main+0x364>
   10498:	e3c330ff 	bic	r3, r3, #255	; 0xff
   1049c:	e5823000 	str	r3, [r2]
   104a0:	0a00005b 	beq	10614 <__libc_start_main+0x2dc>
   104a4:	e59f31f4 	ldr	r3, [pc, #500]	; 106a0 <__libc_start_main+0x368>
   104a8:	e3530000 	cmp	r3, #0
   104ac:	0a000000 	beq	104b4 <__libc_start_main+0x17c>
   104b0:	e1a00000 	nop			; (mov r0, r0)
   104b4:	e3a02004 	mov	r2, #4
   104b8:	e59f31d8 	ldr	r3, [pc, #472]	; 10698 <__libc_start_main+0x360>
   104bc:	e28d0010 	add	r0, sp, #16
   104c0:	e5931000 	ldr	r1, [r3]
   104c4:	e0811002 	add	r1, r1, r2
   104c8:	eb005b3c 	bl	271c0 <memcpy>
   104cc:	e59d1134 	ldr	r1, [sp, #308]	; 0x134
   104d0:	e59d2010 	ldr	r2, [sp, #16]
   104d4:	e59f31c0 	ldr	r3, [pc, #448]	; 1069c <__libc_start_main+0x364>
   104d8:	e3510000 	cmp	r1, #0
   104dc:	e5832004 	str	r2, [r3, #4]
   104e0:	0a000003 	beq	104f4 <__libc_start_main+0x1bc>
   104e4:	e3a02000 	mov	r2, #0
   104e8:	e59d0134 	ldr	r0, [sp, #308]	; 0x134
   104ec:	e1a01002 	mov	r1, r2
   104f0:	eb00187d 	bl	166ec <__cxa_atexit>
   104f4:	e59f3168 	ldr	r3, [pc, #360]	; 10664 <__libc_start_main+0x32c>
   104f8:	e59d1008 	ldr	r1, [sp, #8]
   104fc:	e5932000 	ldr	r2, [r3]
   10500:	e59d0004 	ldr	r0, [sp, #4]
   10504:	eb006f4e 	bl	2c244 <__libc_init_first>
   10508:	e59d3130 	ldr	r3, [sp, #304]	; 0x130
   1050c:	e3530000 	cmp	r3, #0
   10510:	0a000003 	beq	10524 <__libc_start_main+0x1ec>
   10514:	e3a02000 	mov	r2, #0
   10518:	e59d0130 	ldr	r0, [sp, #304]	; 0x130
   1051c:	e1a01002 	mov	r1, r2
   10520:	eb001871 	bl	166ec <__cxa_atexit>
   10524:	e59f3178 	ldr	r3, [pc, #376]	; 106a4 <__libc_start_main+0x36c>
   10528:	e5933000 	ldr	r3, [r3]
   1052c:	e3530000 	cmp	r3, #0
   10530:	0a000000 	beq	10538 <__libc_start_main+0x200>
   10534:	eb000091 	bl	10780 <__libc_check_standard_fds>
   10538:	e3540000 	cmp	r4, #0
   1053c:	0a000004 	beq	10554 <__libc_start_main+0x21c>
   10540:	e59f311c 	ldr	r3, [pc, #284]	; 10664 <__libc_start_main+0x32c>
   10544:	e59d1008 	ldr	r1, [sp, #8]
   10548:	e5932000 	ldr	r2, [r3]
   1054c:	e59d0004 	ldr	r0, [sp, #4]
   10550:	e12fff34 	blx	r4
   10554:	e3a01000 	mov	r1, #0
   10558:	e1a00001 	mov	r0, r1
   1055c:	eb006972 	bl	2ab2c <_dl_debug_initialize>
   10560:	e28d0010 	add	r0, sp, #16
   10564:	eb001469 	bl	15710 <_setjmp>
   10568:	e3500000 	cmp	r0, #0
   1056c:	1a00000d 	bne	105a8 <__libc_start_main+0x270>
   10570:	eb000172 	bl	10b40 <__aeabi_read_tp>
   10574:	e1a03000 	mov	r3, r0
   10578:	e510c440 	ldr	ip, [r0, #-1088]	; 0xfffffbc0
   1057c:	e59f20e0 	ldr	r2, [pc, #224]	; 10664 <__libc_start_main+0x32c>
   10580:	e58dc118 	str	ip, [sp, #280]	; 0x118
   10584:	e28dc010 	add	ip, sp, #16
   10588:	e5922000 	ldr	r2, [r2]
   1058c:	e503c440 	str	ip, [r3, #-1088]	; 0xfffffbc0
   10590:	e5133444 	ldr	r3, [r3, #-1092]	; 0xfffffbbc
   10594:	e99d0003 	ldmib	sp, {r0, r1}
   10598:	e58d311c 	str	r3, [sp, #284]	; 0x11c
   1059c:	e59d300c 	ldr	r3, [sp, #12]
   105a0:	e12fff33 	blx	r3
   105a4:	eb00179c 	bl	1641c <exit>
   105a8:	e1a00000 	nop			; (mov r0, r0)
   105ac:	e59f60f4 	ldr	r6, [pc, #244]	; 106a8 <__libc_start_main+0x370>
   105b0:	e5965000 	ldr	r5, [r6]
   105b4:	e1a02006 	mov	r2, r6
   105b8:	e2451001 	sub	r1, r5, #1
   105bc:	e1a04005 	mov	r4, r5
   105c0:	e5923000 	ldr	r3, [r2]
   105c4:	e1530004 	cmp	r3, r4
   105c8:	1a000005 	bne	105e4 <__libc_start_main+0x2ac>
   105cc:	e1a00004 	mov	r0, r4
   105d0:	e3e03a0f 	mvn	r3, #61440	; 0xf000
   105d4:	e1a0e00f 	mov	lr, pc
   105d8:	e243f03f 	sub	pc, r3, #63	; 0x3f
   105dc:	3afffff7 	bcc	105c0 <__libc_start_main+0x288>
   105e0:	e1a03004 	mov	r3, r4
   105e4:	e1550003 	cmp	r5, r3
   105e8:	1afffff0 	bne	105b0 <__libc_start_main+0x278>
   105ec:	e3550001 	cmp	r5, #1
   105f0:	0a000005 	beq	1060c <__libc_start_main+0x2d4>
   105f4:	e3a02000 	mov	r2, #0
   105f8:	e3a03001 	mov	r3, #1
   105fc:	e1a00002 	mov	r0, r2
   10600:	e1a07003 	mov	r7, r3
   10604:	ef000000 	svc	0x00000000
   10608:	eafffffb 	b	105fc <__libc_start_main+0x2c4>
   1060c:	e3a00000 	mov	r0, #0
   10610:	eaffffe3 	b	105a4 <__libc_start_main+0x26c>
   10614:	eb006ec7 	bl	2c138 <_dl_discover_osversion>
   10618:	e3500000 	cmp	r0, #0
   1061c:	ba00000a 	blt	1064c <__libc_start_main+0x314>
   10620:	e59f3084 	ldr	r3, [pc, #132]	; 106ac <__libc_start_main+0x374>
   10624:	e5933000 	ldr	r3, [r3]
   10628:	e3530000 	cmp	r3, #0
   1062c:	1a000008 	bne	10654 <__libc_start_main+0x31c>
   10630:	e59f3074 	ldr	r3, [pc, #116]	; 106ac <__libc_start_main+0x374>
   10634:	e5830000 	str	r0, [r3]
   10638:	e59f3070 	ldr	r3, [pc, #112]	; 106b0 <__libc_start_main+0x378>
   1063c:	e1500003 	cmp	r0, r3
   10640:	caffff97 	bgt	104a4 <__libc_start_main+0x16c>
   10644:	e59f0068 	ldr	r0, [pc, #104]	; 106b4 <__libc_start_main+0x37c>
   10648:	eb002572 	bl	19c18 <__libc_fatal>
   1064c:	e59f0064 	ldr	r0, [pc, #100]	; 106b8 <__libc_start_main+0x380>
   10650:	eb002570 	bl	19c18 <__libc_fatal>
   10654:	e1530000 	cmp	r3, r0
   10658:	9afffff6 	bls	10638 <__libc_start_main+0x300>
   1065c:	eafffff3 	b	10630 <__libc_start_main+0x2f8>
   10660:	00000000 	.word	0x00000000
   10664:	00087448 	.word	0x00087448
   10668:	00086c9c 	.word	0x00086c9c
   1066c:	00085fd4 	.word	0x00085fd4
   10670:	000878f4 	.word	0x000878f4
   10674:	00010000 	.word	0x00010000
   10678:	00010158 	.word	0x00010158
   1067c:	00010158 	.word	0x00010158
   10680:	00087460 	.word	0x00087460
   10684:	00060b60 	.word	0x00060b60
   10688:	00060bc8 	.word	0x00060bc8
   1068c:	00060b20 	.word	0x00060b20
   10690:	00060b30 	.word	0x00060b30
   10694:	00087914 	.word	0x00087914
   10698:	00085f90 	.word	0x00085f90
   1069c:	00085b98 	.word	0x00085b98
   106a0:	00000000 	.word	0x00000000
   106a4:	00085fd8 	.word	0x00085fd8
   106a8:	00000000 	.word	0x00000000
   106ac:	00087924 	.word	0x00087924
   106b0:	000301ff 	.word	0x000301ff
   106b4:	00060b88 	.word	0x00060b88
   106b8:	00060ba0 	.word	0x00060ba0

000106bc <check_one_fd>:
   106bc:	e92d40f0 	push	{r4, r5, r6, r7, lr}
   106c0:	e1a04001 	mov	r4, r1
   106c4:	e24dd06c 	sub	sp, sp, #108	; 0x6c
   106c8:	e3a01001 	mov	r1, #1
   106cc:	e1a05000 	mov	r5, r0
   106d0:	eb0060e9 	bl	28a7c <__libc_fcntl>
   106d4:	e3700001 	cmn	r0, #1
   106d8:	0a000001 	beq	106e4 <check_one_fd+0x28>
   106dc:	e28dd06c 	add	sp, sp, #108	; 0x6c
   106e0:	e8bd80f0 	pop	{r4, r5, r6, r7, pc}
   106e4:	eb000115 	bl	10b40 <__aeabi_read_tp>
   106e8:	e59f307c 	ldr	r3, [pc, #124]	; 1076c <check_one_fd+0xb0>
   106ec:	e79f3003 	ldr	r3, [pc, r3]
   106f0:	e7903003 	ldr	r3, [r0, r3]
   106f4:	e3530009 	cmp	r3, #9
   106f8:	1afffff7 	bne	106dc <check_one_fd+0x20>
   106fc:	e3540902 	cmp	r4, #32768	; 0x8000
   10700:	059f0068 	ldreq	r0, [pc, #104]	; 10770 <check_one_fd+0xb4>
   10704:	159f0068 	ldrne	r0, [pc, #104]	; 10774 <check_one_fd+0xb8>
   10708:	e1a01004 	mov	r1, r4
   1070c:	e3a02000 	mov	r2, #0
   10710:	059f6060 	ldreq	r6, [pc, #96]	; 10778 <check_one_fd+0xbc>
   10714:	03a07000 	moveq	r7, #0
   10718:	159f605c 	ldrne	r6, [pc, #92]	; 1077c <check_one_fd+0xc0>
   1071c:	13a07000 	movne	r7, #0
   10720:	eb005fd8 	bl	28688 <__open_nocancel>
   10724:	e1550000 	cmp	r5, r0
   10728:	1a00000e 	bne	10768 <check_one_fd+0xac>
   1072c:	e1a01005 	mov	r1, r5
   10730:	e1a0200d 	mov	r2, sp
   10734:	e3a00003 	mov	r0, #3
   10738:	eb005f72 	bl	28508 <___fxstat64>
   1073c:	e3500000 	cmp	r0, #0
   10740:	1a000008 	bne	10768 <check_one_fd+0xac>
   10744:	e59d3010 	ldr	r3, [sp, #16]
   10748:	e2033a0f 	and	r3, r3, #61440	; 0xf000
   1074c:	e3530a02 	cmp	r3, #8192	; 0x2000
   10750:	1a000004 	bne	10768 <check_one_fd+0xac>
   10754:	e28d3020 	add	r3, sp, #32
   10758:	e893000c 	ldm	r3, {r2, r3}
   1075c:	e1530007 	cmp	r3, r7
   10760:	01520006 	cmpeq	r2, r6
   10764:	0affffdc 	beq	106dc <check_one_fd+0x20>
   10768:	e7f000f0 	udf	#0
   1076c:	00075954 	.word	0x00075954
   10770:	00060be8 	.word	0x00060be8
   10774:	00060bdc 	.word	0x00060bdc
   10778:	00000103 	.word	0x00000103
   1077c:	00000107 	.word	0x00000107

00010780 <__libc_check_standard_fds>:
   10780:	e92d4010 	push	{r4, lr}
   10784:	e59f1020 	ldr	r1, [pc, #32]	; 107ac <__libc_check_standard_fds+0x2c>
   10788:	e3a00000 	mov	r0, #0
   1078c:	ebffffca 	bl	106bc <check_one_fd>
   10790:	e3a01902 	mov	r1, #32768	; 0x8000
   10794:	e3a00001 	mov	r0, #1
   10798:	ebffffc7 	bl	106bc <check_one_fd>
   1079c:	e8bd4010 	pop	{r4, lr}
   107a0:	e3a01902 	mov	r1, #32768	; 0x8000
   107a4:	e3a00002 	mov	r0, #2
   107a8:	eaffffc3 	b	106bc <check_one_fd>
   107ac:	00008001 	.word	0x00008001

000107b0 <__libc_setup_tls>:
   107b0:	e92d4ff0 	push	{r4, r5, r6, r7, r8, r9, sl, fp, lr}
   107b4:	e59f3240 	ldr	r3, [pc, #576]	; 109fc <__libc_setup_tls+0x24c>
   107b8:	e59f2240 	ldr	r2, [pc, #576]	; 10a00 <__libc_setup_tls+0x250>
   107bc:	e5933000 	ldr	r3, [r3]
   107c0:	e24dd01c 	sub	sp, sp, #28
   107c4:	e3530000 	cmp	r3, #0
   107c8:	e5925000 	ldr	r5, [r2]
   107cc:	0a00007a 	beq	109bc <__libc_setup_tls+0x20c>
   107d0:	e59f222c 	ldr	r2, [pc, #556]	; 10a04 <__libc_setup_tls+0x254>
   107d4:	e5921000 	ldr	r1, [r2]
   107d8:	e0831281 	add	r1, r3, r1, lsl #5
   107dc:	e1530001 	cmp	r3, r1
   107e0:	3a000003 	bcc	107f4 <__libc_setup_tls+0x44>
   107e4:	ea00001c 	b	1085c <__libc_setup_tls+0xac>
   107e8:	e2833020 	add	r3, r3, #32
   107ec:	e1530001 	cmp	r3, r1
   107f0:	2a000019 	bcs	1085c <__libc_setup_tls+0xac>
   107f4:	e5932000 	ldr	r2, [r3]
   107f8:	e3520007 	cmp	r2, #7
   107fc:	1afffff9 	bne	107e8 <__libc_setup_tls+0x38>
   10800:	e593401c 	ldr	r4, [r3, #28]
   10804:	e5932008 	ldr	r2, [r3, #8]
   10808:	e5951000 	ldr	r1, [r5]
   1080c:	e5939014 	ldr	r9, [r3, #20]
   10810:	e5933010 	ldr	r3, [r3, #16]
   10814:	e0812002 	add	r2, r1, r2
   10818:	e3540010 	cmp	r4, #16
   1081c:	e58d2008 	str	r2, [sp, #8]
   10820:	e58d3004 	str	r3, [sp, #4]
   10824:	8a00006c 	bhi	109dc <__libc_setup_tls+0x22c>
   10828:	e3540000 	cmp	r4, #0
   1082c:	0a00006e 	beq	109ec <__libc_setup_tls+0x23c>
   10830:	e3a03010 	mov	r3, #16
   10834:	e3a0b00f 	mov	fp, #15
   10838:	e3e0a00f 	mvn	sl, #15
   1083c:	e58d300c 	str	r3, [sp, #12]
   10840:	e1a01004 	mov	r1, r4
   10844:	e2840007 	add	r0, r4, #7
   10848:	eb0134db 	bl	5dbbc <__udivsi3>
   1084c:	e0080094 	mul	r8, r4, r0
   10850:	e58d4010 	str	r4, [sp, #16]
   10854:	e1a02008 	mov	r2, r8
   10858:	ea00000b 	b	1088c <__libc_setup_tls+0xdc>
   1085c:	e3a04000 	mov	r4, #0
   10860:	e3a08008 	mov	r8, #8
   10864:	e1a09004 	mov	r9, r4
   10868:	e1a02008 	mov	r2, r8
   1086c:	e3a0b00f 	mov	fp, #15
   10870:	e58d4008 	str	r4, [sp, #8]
   10874:	e58d4004 	str	r4, [sp, #4]
   10878:	e3a03010 	mov	r3, #16
   1087c:	e58d300c 	str	r3, [sp, #12]
   10880:	e3a03001 	mov	r3, #1
   10884:	e3e0a00f 	mvn	sl, #15
   10888:	e58d3010 	str	r3, [sp, #16]
   1088c:	e59f3174 	ldr	r3, [pc, #372]	; 10a08 <__libc_setup_tls+0x258>
   10890:	e58d2014 	str	r2, [sp, #20]
   10894:	e5930000 	ldr	r0, [r3]
   10898:	e59d300c 	ldr	r3, [sp, #12]
   1089c:	e2800d13 	add	r0, r0, #1216	; 0x4c0
   108a0:	e0800008 	add	r0, r0, r8
   108a4:	e0800009 	add	r0, r0, r9
   108a8:	e0800003 	add	r0, r0, r3
   108ac:	eb006312 	bl	294fc <__sbrk>
   108b0:	e3a0c03e 	mov	ip, #62	; 0x3e
   108b4:	e3a01000 	mov	r1, #0
   108b8:	e2800d13 	add	r0, r0, #1216	; 0x4c0
   108bc:	e080b00b 	add	fp, r0, fp
   108c0:	e59f6144 	ldr	r6, [pc, #324]	; 10a0c <__libc_setup_tls+0x25c>
   108c4:	e00aa00b 	and	sl, sl, fp
   108c8:	e59d2014 	ldr	r2, [sp, #20]
   108cc:	e08ae008 	add	lr, sl, r8
   108d0:	e5861014 	str	r1, [r6, #20]
   108d4:	e586e010 	str	lr, [r6, #16]
   108d8:	e586c000 	str	ip, [r6]
   108dc:	e585223c 	str	r2, [r5, #572]	; 0x23c
   108e0:	e1a0000e 	mov	r0, lr
   108e4:	e59d2004 	ldr	r2, [sp, #4]
   108e8:	e59d1008 	ldr	r1, [sp, #8]
   108ec:	e2866008 	add	r6, r6, #8
   108f0:	eb005a32 	bl	271c0 <memcpy>
   108f4:	e59f7114 	ldr	r7, [pc, #276]	; 10a10 <__libc_setup_tls+0x260>
   108f8:	e58a6000 	str	r6, [sl]
   108fc:	e1a0000a 	mov	r0, sl
   10900:	ef000000 	svc	0x00000000
   10904:	e3700a01 	cmn	r0, #4096	; 0x1000
   10908:	9a000001 	bls	10914 <__libc_setup_tls+0x164>
   1090c:	e59f0100 	ldr	r0, [pc, #256]	; 10a14 <__libc_setup_tls+0x264>
   10910:	eb0024c0 	bl	19c18 <__libc_fatal>
   10914:	e3a01001 	mov	r1, #1
   10918:	e3a00040 	mov	r0, #64	; 0x40
   1091c:	e59d2008 	ldr	r2, [sp, #8]
   10920:	e59fc0f0 	ldr	ip, [pc, #240]	; 10a18 <__libc_setup_tls+0x268>
   10924:	e5852228 	str	r2, [r5, #552]	; 0x228
   10928:	e59d2004 	ldr	r2, [sp, #4]
   1092c:	e3540000 	cmp	r4, #0
   10930:	e5859230 	str	r9, [r5, #560]	; 0x230
   10934:	e5854234 	str	r4, [r5, #564]	; 0x234
   10938:	10899004 	addne	r9, r9, r4
   1093c:	e585222c 	str	r2, [r5, #556]	; 0x22c
   10940:	e5851240 	str	r1, [r5, #576]	; 0x240
   10944:	e59f20d0 	ldr	r2, [pc, #208]	; 10a1c <__libc_setup_tls+0x26c>
   10948:	e58c1000 	str	r1, [ip]
   1094c:	e59d4010 	ldr	r4, [sp, #16]
   10950:	e59f10c8 	ldr	r1, [pc, #200]	; 10a20 <__libc_setup_tls+0x270>
   10954:	12499001 	subne	r9, r9, #1
   10958:	e5820000 	str	r0, [r2]
   1095c:	e5825014 	str	r5, [r2, #20]
   10960:	e5812000 	str	r2, [r1]
   10964:	e1a00009 	mov	r0, r9
   10968:	e1a01004 	mov	r1, r4
   1096c:	eb013492 	bl	5dbbc <__udivsi3>
   10970:	e1a03004 	mov	r3, r4
   10974:	e0238390 	mla	r3, r0, r3, r8
   10978:	e1a00003 	mov	r0, r3
   1097c:	e3a0e001 	mov	lr, #1
   10980:	e59f3080 	ldr	r3, [pc, #128]	; 10a08 <__libc_setup_tls+0x258>
   10984:	e59f1098 	ldr	r1, [pc, #152]	; 10a24 <__libc_setup_tls+0x274>
   10988:	e5932000 	ldr	r2, [r3]
   1098c:	e5810000 	str	r0, [r1]
   10990:	e282200f 	add	r2, r2, #15
   10994:	e0822000 	add	r2, r2, r0
   10998:	e3c2200f 	bic	r2, r2, #15
   1099c:	e59fc084 	ldr	ip, [pc, #132]	; 10a28 <__libc_setup_tls+0x278>
   109a0:	e59f1084 	ldr	r1, [pc, #132]	; 10a2c <__libc_setup_tls+0x27c>
   109a4:	e5832000 	str	r2, [r3]
   109a8:	e59d300c 	ldr	r3, [sp, #12]
   109ac:	e58ce000 	str	lr, [ip]
   109b0:	e5813000 	str	r3, [r1]
   109b4:	e28dd01c 	add	sp, sp, #28
   109b8:	e8bd8ff0 	pop	{r4, r5, r6, r7, r8, r9, sl, fp, pc}
   109bc:	e3a08008 	mov	r8, #8
   109c0:	e1a04003 	mov	r4, r3
   109c4:	e58d3008 	str	r3, [sp, #8]
   109c8:	e58d3004 	str	r3, [sp, #4]
   109cc:	e1a09003 	mov	r9, r3
   109d0:	e1a02008 	mov	r2, r8
   109d4:	e3a0b00f 	mov	fp, #15
   109d8:	eaffffa6 	b	10878 <__libc_setup_tls+0xc8>
   109dc:	e264a000 	rsb	sl, r4, #0
   109e0:	e244b001 	sub	fp, r4, #1
   109e4:	e58d400c 	str	r4, [sp, #12]
   109e8:	eaffff94 	b	10840 <__libc_setup_tls+0x90>
   109ec:	e3a08008 	mov	r8, #8
   109f0:	e3a0b00f 	mov	fp, #15
   109f4:	e1a02008 	mov	r2, r8
   109f8:	eaffff9e 	b	10878 <__libc_setup_tls+0xc8>
   109fc:	000878f4 	.word	0x000878f4
   10a00:	00086c38 	.word	0x00086c38
   10a04:	00087914 	.word	0x00087914
   10a08:	00086090 	.word	0x00086090
   10a0c:	00087684 	.word	0x00087684
   10a10:	000f0005 	.word	0x000f0005
   10a14:	00060bf4 	.word	0x00060bf4
   10a18:	00087680 	.word	0x00087680
   10a1c:	00086efc 	.word	0x00086efc
   10a20:	00087884 	.word	0x00087884
   10a24:	00087678 	.word	0x00087678
   10a28:	00087890 	.word	0x00087890
   10a2c:	0008767c 	.word	0x0008767c

00010a30 <__tls_get_addr>:
   10a30:	e52de004 	push	{lr}		; (str lr, [sp, #-4]!)
   10a34:	e1a03000 	mov	r3, r0
   10a38:	eb000040 	bl	10b40 <__aeabi_read_tp>
   10a3c:	e5902000 	ldr	r2, [r0]
   10a40:	e5933004 	ldr	r3, [r3, #4]
   10a44:	e5920008 	ldr	r0, [r2, #8]
   10a48:	e0800003 	add	r0, r0, r3
   10a4c:	e49df004 	pop	{pc}		; (ldr pc, [sp], #4)

00010a50 <__libc_csu_init>:
   10a50:	e92d47f0 	push	{r4, r5, r6, r7, r8, r9, sl, lr}
   10a54:	e59f9084 	ldr	r9, [pc, #132]	; 10ae0 <__libc_csu_init+0x90>
   10a58:	e59f5084 	ldr	r5, [pc, #132]	; 10ae4 <__libc_csu_init+0x94>
   10a5c:	e1a06000 	mov	r6, r0
   10a60:	e0499005 	sub	r9, r9, r5
   10a64:	e1b09149 	asrs	r9, r9, #2
   10a68:	e1a07001 	mov	r7, r1
   10a6c:	e1a08002 	mov	r8, r2
   10a70:	0a000009 	beq	10a9c <__libc_csu_init+0x4c>
   10a74:	e3a04000 	mov	r4, #0
   10a78:	e2455004 	sub	r5, r5, #4
   10a7c:	e2844001 	add	r4, r4, #1
   10a80:	e5b53004 	ldr	r3, [r5, #4]!
   10a84:	e1a02008 	mov	r2, r8
   10a88:	e1a01007 	mov	r1, r7
   10a8c:	e1a00006 	mov	r0, r6
   10a90:	e12fff33 	blx	r3
   10a94:	e1590004 	cmp	r9, r4
   10a98:	1afffff7 	bne	10a7c <__libc_csu_init+0x2c>
   10a9c:	e59f9044 	ldr	r9, [pc, #68]	; 10ae8 <__libc_csu_init+0x98>
   10aa0:	e59f5044 	ldr	r5, [pc, #68]	; 10aec <__libc_csu_init+0x9c>
   10aa4:	ebfffdab 	bl	10158 <__rel_iplt_end>
   10aa8:	e0499005 	sub	r9, r9, r5
   10aac:	e1b09149 	asrs	r9, r9, #2
   10ab0:	08bd87f0 	popeq	{r4, r5, r6, r7, r8, r9, sl, pc}
   10ab4:	e3a04000 	mov	r4, #0
   10ab8:	e2455004 	sub	r5, r5, #4
   10abc:	e2844001 	add	r4, r4, #1
   10ac0:	e5b53004 	ldr	r3, [r5, #4]!
   10ac4:	e1a02008 	mov	r2, r8
   10ac8:	e1a01007 	mov	r1, r7
   10acc:	e1a00006 	mov	r0, r6
   10ad0:	e12fff33 	blx	r3
   10ad4:	e1590004 	cmp	r9, r4
   10ad8:	1afffff7 	bne	10abc <__libc_csu_init+0x6c>
   10adc:	e8bd87f0 	pop	{r4, r5, r6, r7, r8, r9, sl, pc}
   10ae0:	00085b8c 	.word	0x00085b8c
   10ae4:	00085b8c 	.word	0x00085b8c
   10ae8:	00085b90 	.word	0x00085b90
   10aec:	00085b8c 	.word	0x00085b8c

00010af0 <__libc_csu_fini>:
   10af0:	e92d4070 	push	{r4, r5, r6, lr}
   10af4:	e59f3034 	ldr	r3, [pc, #52]	; 10b30 <__libc_csu_fini+0x40>
   10af8:	e59f5034 	ldr	r5, [pc, #52]	; 10b34 <__libc_csu_fini+0x44>
   10afc:	e0433005 	sub	r3, r3, r5
   10b00:	e1a03143 	asr	r3, r3, #2
   10b04:	e3530000 	cmp	r3, #0
   10b08:	0a000006 	beq	10b28 <__libc_csu_fini+0x38>
   10b0c:	e2434001 	sub	r4, r3, #1
   10b10:	e0855103 	add	r5, r5, r3, lsl #2
   10b14:	e2444001 	sub	r4, r4, #1
   10b18:	e5353004 	ldr	r3, [r5, #-4]!
   10b1c:	e12fff33 	blx	r3
   10b20:	e3740001 	cmn	r4, #1
   10b24:	1afffffa 	bne	10b14 <__libc_csu_fini+0x24>
   10b28:	e8bd4070 	pop	{r4, r5, r6, lr}
   10b2c:	ea013ff3 	b	60b00 <_fini>
   10b30:	00085b98 	.word	0x00085b98
   10b34:	00085b90 	.word	0x00085b90
	...

00010b40 <__aeabi_read_tp>:
   10b40:	e3e00a0f 	mvn	r0, #61440	; 0xf000
   10b44:	e240f01f 	sub	pc, r0, #31

00010b48 <__assert_fail_base>:
   10b48:	e92d4080 	push	{r7, lr}
   10b4c:	e59fc178 	ldr	ip, [pc, #376]	; 10ccc <__assert_fail_base+0x184>
   10b50:	e59fe178 	ldr	lr, [pc, #376]	; 10cd0 <__assert_fail_base+0x188>
   10b54:	e59cc000 	ldr	ip, [ip]
   10b58:	e24dd028 	sub	sp, sp, #40	; 0x28
   10b5c:	e35e0000 	cmp	lr, #0
   10b60:	e1a05000 	mov	r5, r0
   10b64:	e1a06001 	mov	r6, r1
   10b68:	e1a07002 	mov	r7, r2
   10b6c:	e1a08003 	mov	r8, r3
   10b70:	e58dc024 	str	ip, [sp, #36]	; 0x24
   10b74:	e59d4030 	ldr	r4, [sp, #48]	; 0x30
   10b78:	0a000002 	beq	10b88 <__assert_fail_base+0x40>
   10b7c:	e3a01000 	mov	r1, #0
   10b80:	e3a00001 	mov	r0, #1
   10b84:	e1a00000 	nop			; (mov r0, r0)
   10b88:	e59f3144 	ldr	r3, [pc, #324]	; 10cd4 <__assert_fail_base+0x18c>
   10b8c:	e59f1144 	ldr	r1, [pc, #324]	; 10cd8 <__assert_fail_base+0x190>
   10b90:	e5932000 	ldr	r2, [r3]
   10b94:	e59fc140 	ldr	ip, [pc, #320]	; 10cdc <__assert_fail_base+0x194>
   10b98:	e5d20000 	ldrb	r0, [r2]
   10b9c:	e58d6010 	str	r6, [sp, #16]
   10ba0:	e3500000 	cmp	r0, #0
   10ba4:	11a03001 	movne	r3, r1
   10ba8:	01a0300c 	moveq	r3, ip
   10bac:	e3540000 	cmp	r4, #0
   10bb0:	01a0400c 	moveq	r4, ip
   10bb4:	01a01004 	moveq	r1, r4
   10bb8:	e28d0020 	add	r0, sp, #32
   10bbc:	e58d100c 	str	r1, [sp, #12]
   10bc0:	e58d0014 	str	r0, [sp, #20]
   10bc4:	e58d4008 	str	r4, [sp, #8]
   10bc8:	e88d0180 	stm	sp, {r7, r8}
   10bcc:	e1a01005 	mov	r1, r5
   10bd0:	e28d001c 	add	r0, sp, #28
   10bd4:	eb0018af 	bl	16e98 <___asprintf>
   10bd8:	e3500000 	cmp	r0, #0
   10bdc:	ba000035 	blt	10cb8 <__assert_fail_base+0x170>
   10be0:	e59d201c 	ldr	r2, [sp, #28]
   10be4:	e59f10f4 	ldr	r1, [pc, #244]	; 10ce0 <__assert_fail_base+0x198>
   10be8:	e3a00000 	mov	r0, #0
   10bec:	eb001916 	bl	1704c <__fxprintf>
   10bf0:	e59f30ec 	ldr	r3, [pc, #236]	; 10ce4 <__assert_fail_base+0x19c>
   10bf4:	e5930000 	ldr	r0, [r3]
   10bf8:	eb001aa5 	bl	17694 <_IO_fflush>
   10bfc:	e3a00000 	mov	r0, #0
   10c00:	e3e02000 	mvn	r2, #0
   10c04:	e59f30dc 	ldr	r3, [pc, #220]	; 10ce8 <__assert_fail_base+0x1a0>
   10c08:	e59dc020 	ldr	ip, [sp, #32]
   10c0c:	e5933000 	ldr	r3, [r3]
   10c10:	e58d2000 	str	r2, [sp]
   10c14:	e083c00c 	add	ip, r3, ip
   10c18:	e2633000 	rsb	r3, r3, #0
   10c1c:	e00cc003 	and	ip, ip, r3
   10c20:	e58d0004 	str	r0, [sp, #4]
   10c24:	e1a0100c 	mov	r1, ip
   10c28:	e3a03022 	mov	r3, #34	; 0x22
   10c2c:	e3a02003 	mov	r2, #3
   10c30:	e58dc020 	str	ip, [sp, #32]
   10c34:	eb00627f 	bl	29638 <__mmap>
   10c38:	e3700001 	cmn	r0, #1
   10c3c:	e1a06000 	mov	r6, r0
   10c40:	0a000019 	beq	10cac <__assert_fail_base+0x164>
   10c44:	e59d3020 	ldr	r3, [sp, #32]
   10c48:	e59f709c 	ldr	r7, [pc, #156]	; 10cec <__assert_fail_base+0x1a4>
   10c4c:	e59d101c 	ldr	r1, [sp, #28]
   10c50:	e4803004 	str	r3, [r0], #4
   10c54:	eb0053ed 	bl	25c10 <strcpy>
   10c58:	e1a08007 	mov	r8, r7
   10c5c:	e5975000 	ldr	r5, [r7]
   10c60:	e1a01006 	mov	r1, r6
   10c64:	e1a04005 	mov	r4, r5
   10c68:	e1a02008 	mov	r2, r8
   10c6c:	e5923000 	ldr	r3, [r2]
   10c70:	e1530004 	cmp	r3, r4
   10c74:	1a000005 	bne	10c90 <__assert_fail_base+0x148>
   10c78:	e1a00004 	mov	r0, r4
   10c7c:	e3e03a0f 	mvn	r3, #61440	; 0xf000
   10c80:	e1a0e00f 	mov	lr, pc
   10c84:	e243f03f 	sub	pc, r3, #63	; 0x3f
   10c88:	3afffff7 	bcc	10c6c <__assert_fail_base+0x124>
   10c8c:	e1a03004 	mov	r3, r4
   10c90:	e1550003 	cmp	r5, r3
   10c94:	1afffff0 	bne	10c5c <__assert_fail_base+0x114>
   10c98:	e3550000 	cmp	r5, #0
   10c9c:	0a000002 	beq	10cac <__assert_fail_base+0x164>
   10ca0:	e5951000 	ldr	r1, [r5]
   10ca4:	e1a00005 	mov	r0, r5
   10ca8:	eb0062a8 	bl	29750 <__munmap>
   10cac:	e59d001c 	ldr	r0, [sp, #28]
   10cb0:	eb004eb9 	bl	2479c <__free>
   10cb4:	eb001297 	bl	15718 <abort>
   10cb8:	e3a02012 	mov	r2, #18
   10cbc:	e59f102c 	ldr	r1, [pc, #44]	; 10cf0 <__assert_fail_base+0x1a8>
   10cc0:	e3a00002 	mov	r0, #2
   10cc4:	eb005eda 	bl	28834 <__libc_write>
   10cc8:	eafffff9 	b	10cb4 <__assert_fail_base+0x16c>
   10ccc:	00085b98 	.word	0x00085b98
   10cd0:	00000000 	.word	0x00000000
   10cd4:	00086970 	.word	0x00086970
   10cd8:	00060c04 	.word	0x00060c04
   10cdc:	0007485c 	.word	0x0007485c
   10ce0:	00074630 	.word	0x00074630
   10ce4:	000864ac 	.word	0x000864ac
   10ce8:	00086978 	.word	0x00086978
   10cec:	000871b8 	.word	0x000871b8
   10cf0:	00060c34 	.word	0x00060c34

00010cf4 <__assert_fail>:
   10cf4:	e92d4080 	push	{r7, lr}
   10cf8:	e1a04000 	mov	r4, r0
   10cfc:	e1a07003 	mov	r7, r3
   10d00:	e1a05001 	mov	r5, r1
   10d04:	e1a06002 	mov	r6, r2
   10d08:	e24dd008 	sub	sp, sp, #8
   10d0c:	e3a02005 	mov	r2, #5
   10d10:	e59f1018 	ldr	r1, [pc, #24]	; 10d30 <__assert_fail+0x3c>
   10d14:	e59f0018 	ldr	r0, [pc, #24]	; 10d34 <__assert_fail+0x40>
   10d18:	eb000006 	bl	10d38 <__dcgettext>
   10d1c:	e58d7000 	str	r7, [sp]
   10d20:	e1a03006 	mov	r3, r6
   10d24:	e1a02005 	mov	r2, r5
   10d28:	e1a01004 	mov	r1, r4
   10d2c:	ebffff85 	bl	10b48 <__assert_fail_base>
   10d30:	00060c08 	.word	0x00060c08
   10d34:	0006fae0 	.word	0x0006fae0

00010d38 <__dcgettext>:
   10d38:	e3a03000 	mov	r3, #0
   10d3c:	e52de004 	push	{lr}		; (str lr, [sp, #-4]!)
   10d40:	e24dd00c 	sub	sp, sp, #12
   10d44:	e58d2004 	str	r2, [sp, #4]
   10d48:	e58d3000 	str	r3, [sp]
   10d4c:	e1a02003 	mov	r2, r3
   10d50:	eb000397 	bl	11bb4 <__dcigettext>
   10d54:	e28dd00c 	add	sp, sp, #12
   10d58:	e49df004 	pop	{pc}		; (ldr pc, [sp], #4)

00010d5c <plural_eval>:
   10d5c:	e92d41f0 	push	{r4, r5, r6, r7, r8, lr}
   10d60:	e1a04000 	mov	r4, r0
   10d64:	e1a06001 	mov	r6, r1
   10d68:	e5943000 	ldr	r3, [r4]
   10d6c:	e3530003 	cmp	r3, #3
   10d70:	979ff103 	ldrls	pc, [pc, r3, lsl #2]
   10d74:	ea00002f 	b	10e38 <plural_eval+0xdc>
   10d78:	00010e08 	.word	0x00010e08
   10d7c:	00010dec 	.word	0x00010dec
   10d80:	00010da8 	.word	0x00010da8
   10d84:	00010d88 	.word	0x00010d88
   10d88:	e5940008 	ldr	r0, [r4, #8]
   10d8c:	e1a01006 	mov	r1, r6
   10d90:	ebfffff1 	bl	10d5c <plural_eval>
   10d94:	e3500000 	cmp	r0, #0
   10d98:	13a03003 	movne	r3, #3
   10d9c:	03a03004 	moveq	r3, #4
   10da0:	e7944103 	ldr	r4, [r4, r3, lsl #2]
   10da4:	eaffffef 	b	10d68 <plural_eval+0xc>
   10da8:	e1a01006 	mov	r1, r6
   10dac:	e5940008 	ldr	r0, [r4, #8]
   10db0:	ebffffe9 	bl	10d5c <plural_eval>
   10db4:	e5947004 	ldr	r7, [r4, #4]
   10db8:	e1a05000 	mov	r5, r0
   10dbc:	e357000f 	cmp	r7, #15
   10dc0:	0a000018 	beq	10e28 <plural_eval+0xcc>
   10dc4:	e357000e 	cmp	r7, #14
   10dc8:	1a00001c 	bne	10e40 <plural_eval+0xe4>
   10dcc:	e3500000 	cmp	r0, #0
   10dd0:	0a00000a 	beq	10e00 <plural_eval+0xa4>
   10dd4:	e1a01006 	mov	r1, r6
   10dd8:	e594000c 	ldr	r0, [r4, #12]
   10ddc:	ebffffde 	bl	10d5c <plural_eval>
   10de0:	e2905000 	adds	r5, r0, #0
   10de4:	13a05001 	movne	r5, #1
   10de8:	ea000004 	b	10e00 <plural_eval+0xa4>
   10dec:	e1a01006 	mov	r1, r6
   10df0:	e5940008 	ldr	r0, [r4, #8]
   10df4:	ebffffd8 	bl	10d5c <plural_eval>
   10df8:	e16f5f10 	clz	r5, r0
   10dfc:	e1a052a5 	lsr	r5, r5, #5
   10e00:	e1a00005 	mov	r0, r5
   10e04:	e8bd81f0 	pop	{r4, r5, r6, r7, r8, pc}
   10e08:	e5943004 	ldr	r3, [r4, #4]
   10e0c:	e3530000 	cmp	r3, #0
   10e10:	01a05006 	moveq	r5, r6
   10e14:	0afffff9 	beq	10e00 <plural_eval+0xa4>
   10e18:	e3530001 	cmp	r3, #1
   10e1c:	1a000005 	bne	10e38 <plural_eval+0xdc>
   10e20:	e5945008 	ldr	r5, [r4, #8]
   10e24:	eafffff5 	b	10e00 <plural_eval+0xa4>
   10e28:	e3500000 	cmp	r0, #0
   10e2c:	13a05001 	movne	r5, #1
   10e30:	1afffff2 	bne	10e00 <plural_eval+0xa4>
   10e34:	eaffffe6 	b	10dd4 <plural_eval+0x78>
   10e38:	e3a05000 	mov	r5, #0
   10e3c:	eaffffef 	b	10e00 <plural_eval+0xa4>
   10e40:	e1a01006 	mov	r1, r6
   10e44:	e594000c 	ldr	r0, [r4, #12]
   10e48:	e2477003 	sub	r7, r7, #3
   10e4c:	ebffffc2 	bl	10d5c <plural_eval>
   10e50:	e357000a 	cmp	r7, #10
   10e54:	979ff107 	ldrls	pc, [pc, r7, lsl #2]
   10e58:	eafffff6 	b	10e38 <plural_eval+0xdc>
   10e5c:	00010f1c 	.word	0x00010f1c
   10e60:	00010f08 	.word	0x00010f08
   10e64:	00010ef4 	.word	0x00010ef4
   10e68:	00010eec 	.word	0x00010eec
   10e6c:	00010ee4 	.word	0x00010ee4
   10e70:	00010ed4 	.word	0x00010ed4
   10e74:	00010ec4 	.word	0x00010ec4
   10e78:	00010eb4 	.word	0x00010eb4
   10e7c:	00010ea4 	.word	0x00010ea4
   10e80:	00010e94 	.word	0x00010e94
   10e84:	00010e88 	.word	0x00010e88
   10e88:	e0555000 	subs	r5, r5, r0
   10e8c:	13a05001 	movne	r5, #1
   10e90:	eaffffda 	b	10e00 <plural_eval+0xa4>
   10e94:	e0455000 	sub	r5, r5, r0
   10e98:	e16f5f15 	clz	r5, r5
   10e9c:	e1a052a5 	lsr	r5, r5, #5
   10ea0:	eaffffd6 	b	10e00 <plural_eval+0xa4>
   10ea4:	e1550000 	cmp	r5, r0
   10ea8:	33a05000 	movcc	r5, #0
   10eac:	23a05001 	movcs	r5, #1
   10eb0:	eaffffd2 	b	10e00 <plural_eval+0xa4>
   10eb4:	e1550000 	cmp	r5, r0
   10eb8:	83a05000 	movhi	r5, #0
   10ebc:	93a05001 	movls	r5, #1
   10ec0:	eaffffce 	b	10e00 <plural_eval+0xa4>
   10ec4:	e1550000 	cmp	r5, r0
   10ec8:	93a05000 	movls	r5, #0
   10ecc:	83a05001 	movhi	r5, #1
   10ed0:	eaffffca 	b	10e00 <plural_eval+0xa4>
   10ed4:	e1550000 	cmp	r5, r0
   10ed8:	23a05000 	movcs	r5, #0
   10edc:	33a05001 	movcc	r5, #1
   10ee0:	eaffffc6 	b	10e00 <plural_eval+0xa4>
   10ee4:	e0455000 	sub	r5, r5, r0
   10ee8:	eaffffc4 	b	10e00 <plural_eval+0xa4>
   10eec:	e0855000 	add	r5, r5, r0
   10ef0:	eaffffc2 	b	10e00 <plural_eval+0xa4>
   10ef4:	e1a01000 	mov	r1, r0
   10ef8:	e1a00005 	mov	r0, r5
   10efc:	eb0133a9 	bl	5dda8 <__aeabi_uidivmod>
   10f00:	e1a05001 	mov	r5, r1
   10f04:	eaffffbd 	b	10e00 <plural_eval+0xa4>
   10f08:	e1a01000 	mov	r1, r0
   10f0c:	e1a00005 	mov	r0, r5
   10f10:	eb013329 	bl	5dbbc <__udivsi3>
   10f14:	e1a05000 	mov	r5, r0
   10f18:	eaffffb8 	b	10e00 <plural_eval+0xa4>
   10f1c:	e0050590 	mul	r5, r0, r5
   10f20:	eaffffb6 	b	10e00 <plural_eval+0xa4>

00010f24 <transcmp>:
   10f24:	e92d4070 	push	{r4, r5, r6, lr}
   10f28:	e1a05000 	mov	r5, r0
   10f2c:	e1a04001 	mov	r4, r1
   10f30:	e5903010 	ldr	r3, [r0, #16]
   10f34:	e3530000 	cmp	r3, #0
   10f38:	e5913010 	ldr	r3, [r1, #16]
   10f3c:	1280001c 	addne	r0, r0, #28
   10f40:	0595001c 	ldreq	r0, [r5, #28]
   10f44:	e3530000 	cmp	r3, #0
   10f48:	1281101c 	addne	r1, r1, #28
   10f4c:	0594101c 	ldreq	r1, [r4, #28]
   10f50:	eb005324 	bl	25be8 <strcmp>
   10f54:	e3500000 	cmp	r0, #0
   10f58:	18bd8070 	popne	{r4, r5, r6, pc}
   10f5c:	e5941000 	ldr	r1, [r4]
   10f60:	e5950000 	ldr	r0, [r5]
   10f64:	eb00531f 	bl	25be8 <strcmp>
   10f68:	e3500000 	cmp	r0, #0
   10f6c:	18bd8070 	popne	{r4, r5, r6, pc}
   10f70:	e5941008 	ldr	r1, [r4, #8]
   10f74:	e5950008 	ldr	r0, [r5, #8]
   10f78:	eb00531a 	bl	25be8 <strcmp>
   10f7c:	e3500000 	cmp	r0, #0
   10f80:	05943004 	ldreq	r3, [r4, #4]
   10f84:	05950004 	ldreq	r0, [r5, #4]
   10f88:	00400003 	subeq	r0, r0, r3
   10f8c:	e8bd8070 	pop	{r4, r5, r6, pc}

00010f90 <plural_lookup.isra.2>:
   10f90:	e92d41f0 	push	{r4, r5, r6, r7, r8, lr}
   10f94:	e1a07000 	mov	r7, r0
   10f98:	e5900060 	ldr	r0, [r0, #96]	; 0x60
   10f9c:	e1a05003 	mov	r5, r3
   10fa0:	e1a06002 	mov	r6, r2
   10fa4:	ebffff6c 	bl	10d5c <plural_eval>
   10fa8:	e5973064 	ldr	r3, [r7, #100]	; 0x64
   10fac:	e1500003 	cmp	r0, r3
   10fb0:	2a000009 	bcs	10fdc <plural_lookup.isra.2+0x4c>
   10fb4:	e1a04000 	mov	r4, r0
   10fb8:	e1a00006 	mov	r0, r6
   10fbc:	e0865005 	add	r5, r6, r5
   10fc0:	e2544001 	subs	r4, r4, #1
   10fc4:	3a000006 	bcc	10fe4 <plural_lookup.isra.2+0x54>
   10fc8:	e3a01000 	mov	r1, #0
   10fcc:	eb005922 	bl	2745c <__rawmemchr>
   10fd0:	e2800001 	add	r0, r0, #1
   10fd4:	e1500005 	cmp	r0, r5
   10fd8:	3afffff8 	bcc	10fc0 <plural_lookup.isra.2+0x30>
   10fdc:	e1a00006 	mov	r0, r6
   10fe0:	e8bd81f0 	pop	{r4, r5, r6, r7, r8, pc}
   10fe4:	e1a06000 	mov	r6, r0
   10fe8:	eafffffb 	b	10fdc <plural_lookup.isra.2+0x4c>

00010fec <_nl_find_msg>:
   10fec:	e92d4ff0 	push	{r4, r5, r6, r7, r8, r9, sl, fp, lr}
   10ff0:	e28db020 	add	fp, sp, #32
   10ff4:	e24dd04c 	sub	sp, sp, #76	; 0x4c
   10ff8:	e59fcb7c 	ldr	ip, [pc, #2940]	; 11b7c <_nl_find_msg+0xb90>
   10ffc:	e590e004 	ldr	lr, [r0, #4]
   11000:	e59cc000 	ldr	ip, [ip]
   11004:	e50b3058 	str	r3, [fp, #-88]	; 0xffffffa8
   11008:	e59b3004 	ldr	r3, [fp, #4]
   1100c:	e35e0000 	cmp	lr, #0
   11010:	e50b004c 	str	r0, [fp, #-76]	; 0xffffffb4
   11014:	e1a0a002 	mov	sl, r2
   11018:	e50bc028 	str	ip, [fp, #-40]	; 0xffffffd8
   1101c:	e50b1060 	str	r1, [fp, #-96]	; 0xffffffa0
   11020:	e50b305c 	str	r3, [fp, #-92]	; 0xffffffa4
   11024:	da0000a0 	ble	112ac <_nl_find_msg+0x2c0>
   11028:	e51b304c 	ldr	r3, [fp, #-76]	; 0xffffffb4
   1102c:	e5936008 	ldr	r6, [r3, #8]
   11030:	e3560000 	cmp	r6, #0
   11034:	0a000093 	beq	11288 <_nl_find_msg+0x29c>
   11038:	e5963030 	ldr	r3, [r6, #48]	; 0x30
   1103c:	e5962014 	ldr	r2, [r6, #20]
   11040:	e3530000 	cmp	r3, #0
   11044:	e50b2038 	str	r2, [fp, #-56]	; 0xffffffc8
   11048:	0a000067 	beq	111ec <_nl_find_msg+0x200>
   1104c:	e1a0000a 	mov	r0, sl
   11050:	eb00535e 	bl	25dd0 <strlen>
   11054:	e50b003c 	str	r0, [fp, #-60]	; 0xffffffc4
   11058:	e1a0000a 	mov	r0, sl
   1105c:	eb00119f 	bl	156e0 <__hash_string>
   11060:	e596502c 	ldr	r5, [r6, #44]	; 0x2c
   11064:	e1a07000 	mov	r7, r0
   11068:	e1a01005 	mov	r1, r5
   1106c:	eb01334d 	bl	5dda8 <__aeabi_uidivmod>
   11070:	e1a00007 	mov	r0, r7
   11074:	e1a04001 	mov	r4, r1
   11078:	e2451002 	sub	r1, r5, #2
   1107c:	eb013349 	bl	5dda8 <__aeabi_uidivmod>
   11080:	e5963030 	ldr	r3, [r6, #48]	; 0x30
   11084:	e5962034 	ldr	r2, [r6, #52]	; 0x34
   11088:	e1a09003 	mov	r9, r3
   1108c:	e1a08002 	mov	r8, r2
   11090:	e1a0300a 	mov	r3, sl
   11094:	e2811001 	add	r1, r1, #1
   11098:	e0450001 	sub	r0, r5, r1
   1109c:	e50b1044 	str	r1, [fp, #-68]	; 0xffffffbc
   110a0:	e0411005 	sub	r1, r1, r5
   110a4:	e50b0040 	str	r0, [fp, #-64]	; 0xffffffc0
   110a8:	e50b1048 	str	r1, [fp, #-72]	; 0xffffffb8
   110ac:	e7995104 	ldr	r5, [r9, r4, lsl #2]
   110b0:	e3580000 	cmp	r8, #0
   110b4:	10252865 	eorne	r2, r5, r5, ror #16
   110b8:	11a02422 	lsrne	r2, r2, #8
   110bc:	13c22cff 	bicne	r2, r2, #65280	; 0xff00
   110c0:	10225465 	eorne	r5, r2, r5, ror #8
   110c4:	e3550000 	cmp	r5, #0
   110c8:	0a00006e 	beq	11288 <_nl_find_msg+0x29c>
   110cc:	e51b2038 	ldr	r2, [fp, #-56]	; 0xffffffc8
   110d0:	e2455001 	sub	r5, r5, #1
   110d4:	e1520005 	cmp	r2, r5
   110d8:	9a000028 	bls	11180 <_nl_find_msg+0x194>
   110dc:	e596700c 	ldr	r7, [r6, #12]
   110e0:	e5962018 	ldr	r2, [r6, #24]
   110e4:	e1a0a185 	lsl	sl, r5, #3
   110e8:	e3570000 	cmp	r7, #0
   110ec:	e082100a 	add	r1, r2, sl
   110f0:	e7920185 	ldr	r0, [r2, r5, lsl #3]
   110f4:	0a00000d 	beq	11130 <_nl_find_msg+0x144>
   110f8:	e0202860 	eor	r2, r0, r0, ror #16
   110fc:	e1a02422 	lsr	r2, r2, #8
   11100:	e3c22cff 	bic	r2, r2, #65280	; 0xff00
   11104:	e0222460 	eor	r2, r2, r0, ror #8
   11108:	e51b003c 	ldr	r0, [fp, #-60]	; 0xffffffc4
   1110c:	e1500002 	cmp	r0, r2
   11110:	8a000014 	bhi	11168 <_nl_find_msg+0x17c>
   11114:	e5910004 	ldr	r0, [r1, #4]
   11118:	e5962000 	ldr	r2, [r6]
   1111c:	e0201860 	eor	r1, r0, r0, ror #16
   11120:	e1a01421 	lsr	r1, r1, #8
   11124:	e3c11cff 	bic	r1, r1, #65280	; 0xff00
   11128:	e0211460 	eor	r1, r1, r0, ror #8
   1112c:	ea000004 	b	11144 <_nl_find_msg+0x158>
   11130:	e51b203c 	ldr	r2, [fp, #-60]	; 0xffffffc4
   11134:	e1520000 	cmp	r2, r0
   11138:	8a00000a 	bhi	11168 <_nl_find_msg+0x17c>
   1113c:	e5911004 	ldr	r1, [r1, #4]
   11140:	e5962000 	ldr	r2, [r6]
   11144:	e0821001 	add	r1, r2, r1
   11148:	e1a00003 	mov	r0, r3
   1114c:	e50b2054 	str	r2, [fp, #-84]	; 0xffffffac
   11150:	e50b3050 	str	r3, [fp, #-80]	; 0xffffffb0
   11154:	eb0052a3 	bl	25be8 <strcmp>
   11158:	e3500000 	cmp	r0, #0
   1115c:	e51b3050 	ldr	r3, [fp, #-80]	; 0xffffffb0
   11160:	e51b2054 	ldr	r2, [fp, #-84]	; 0xffffffac
   11164:	0a000052 	beq	112b4 <_nl_find_msg+0x2c8>
   11168:	e51b2040 	ldr	r2, [fp, #-64]	; 0xffffffc0
   1116c:	e1520004 	cmp	r2, r4
   11170:	951b2048 	ldrls	r2, [fp, #-72]	; 0xffffffb8
   11174:	851b2044 	ldrhi	r2, [fp, #-68]	; 0xffffffbc
   11178:	e0844002 	add	r4, r4, r2
   1117c:	eaffffca 	b	110ac <_nl_find_msg+0xc0>
   11180:	e51b1038 	ldr	r1, [fp, #-56]	; 0xffffffc8
   11184:	e5962024 	ldr	r2, [r6, #36]	; 0x24
   11188:	e0457001 	sub	r7, r5, r1
   1118c:	e7921187 	ldr	r1, [r2, r7, lsl #3]
   11190:	e51b003c 	ldr	r0, [fp, #-60]	; 0xffffffc4
   11194:	e0822187 	add	r2, r2, r7, lsl #3
   11198:	e1510000 	cmp	r1, r0
   1119c:	9afffff1 	bls	11168 <_nl_find_msg+0x17c>
   111a0:	e1a00003 	mov	r0, r3
   111a4:	e5921004 	ldr	r1, [r2, #4]
   111a8:	e50b3050 	str	r3, [fp, #-80]	; 0xffffffb0
   111ac:	eb00528d 	bl	25be8 <strcmp>
   111b0:	e3500000 	cmp	r0, #0
   111b4:	e51b3050 	ldr	r3, [fp, #-80]	; 0xffffffb0
   111b8:	1affffea 	bne	11168 <_nl_find_msg+0x17c>
   111bc:	e5963028 	ldr	r3, [r6, #40]	; 0x28
   111c0:	e0832187 	add	r2, r3, r7, lsl #3
   111c4:	e7933187 	ldr	r3, [r3, r7, lsl #3]
   111c8:	e5929004 	ldr	r9, [r2, #4]
   111cc:	e50b303c 	str	r3, [fp, #-60]	; 0xffffffc4
   111d0:	e51b3058 	ldr	r3, [fp, #-88]	; 0xffffffa8
   111d4:	e3530000 	cmp	r3, #0
   111d8:	1a00004c 	bne	11310 <_nl_find_msg+0x324>
   111dc:	e51b305c 	ldr	r3, [fp, #-92]	; 0xffffffa4
   111e0:	e51b203c 	ldr	r2, [fp, #-60]	; 0xffffffc4
   111e4:	e5832000 	str	r2, [r3]
   111e8:	ea000027 	b	1128c <_nl_find_msg+0x2a0>
   111ec:	e51b4038 	ldr	r4, [fp, #-56]	; 0xffffffc8
   111f0:	e1a07003 	mov	r7, r3
   111f4:	e50ba040 	str	sl, [fp, #-64]	; 0xffffffc0
   111f8:	ea000005 	b	11214 <_nl_find_msg+0x228>
   111fc:	e1a03006 	mov	r3, r6
   11200:	e1a06008 	mov	r6, r8
   11204:	e1a08009 	mov	r8, r9
   11208:	e1a09003 	mov	r9, r3
   1120c:	0a000254 	beq	11b64 <_nl_find_msg+0xb78>
   11210:	e2857001 	add	r7, r5, #1
   11214:	e1540007 	cmp	r4, r7
   11218:	9a00001a 	bls	11288 <_nl_find_msg+0x29c>
   1121c:	e5969000 	ldr	r9, [r6]
   11220:	e5963018 	ldr	r3, [r6, #24]
   11224:	e596800c 	ldr	r8, [r6, #12]
   11228:	e50b303c 	str	r3, [fp, #-60]	; 0xffffffc4
   1122c:	e1a03009 	mov	r3, r9
   11230:	e1a09008 	mov	r9, r8
   11234:	e1a08006 	mov	r8, r6
   11238:	e1a06003 	mov	r6, r3
   1123c:	e0875004 	add	r5, r7, r4
   11240:	e51b303c 	ldr	r3, [fp, #-60]	; 0xffffffc4
   11244:	e1a050a5 	lsr	r5, r5, #1
   11248:	e1a0a185 	lsl	sl, r5, #3
   1124c:	e083200a 	add	r2, r3, sl
   11250:	e5921004 	ldr	r1, [r2, #4]
   11254:	e3590000 	cmp	r9, #0
   11258:	10212861 	eorne	r2, r1, r1, ror #16
   1125c:	11a02422 	lsrne	r2, r2, #8
   11260:	13c22cff 	bicne	r2, r2, #65280	; 0xff00
   11264:	10221461 	eorne	r1, r2, r1, ror #8
   11268:	e0861001 	add	r1, r6, r1
   1126c:	e51b0040 	ldr	r0, [fp, #-64]	; 0xffffffc0
   11270:	eb00525c 	bl	25be8 <strcmp>
   11274:	e3500000 	cmp	r0, #0
   11278:	aaffffdf 	bge	111fc <_nl_find_msg+0x210>
   1127c:	e1570005 	cmp	r7, r5
   11280:	e1a04005 	mov	r4, r5
   11284:	3affffec 	bcc	1123c <_nl_find_msg+0x250>
   11288:	e3a09000 	mov	r9, #0
   1128c:	e59f38e8 	ldr	r3, [pc, #2280]	; 11b7c <_nl_find_msg+0xb90>
   11290:	e51b2028 	ldr	r2, [fp, #-40]	; 0xffffffd8
   11294:	e5933000 	ldr	r3, [r3]
   11298:	e1a00009 	mov	r0, r9
   1129c:	e1520003 	cmp	r2, r3
   112a0:	1a00022c 	bne	11b58 <_nl_find_msg+0xb6c>
   112a4:	e24bd020 	sub	sp, fp, #32
   112a8:	e8bd8ff0 	pop	{r4, r5, r6, r7, r8, r9, sl, fp, pc}
   112ac:	eb0004c0 	bl	125b4 <_nl_load_domain>
   112b0:	eaffff5c 	b	11028 <_nl_find_msg+0x3c>
   112b4:	e1a08007 	mov	r8, r7
   112b8:	e1a09002 	mov	r9, r2
   112bc:	e1a0700a 	mov	r7, sl
   112c0:	e596301c 	ldr	r3, [r6, #28]
   112c4:	e3580000 	cmp	r8, #0
   112c8:	e0837007 	add	r7, r3, r7
   112cc:	e5970004 	ldr	r0, [r7, #4]
   112d0:	e7931185 	ldr	r1, [r3, r5, lsl #3]
   112d4:	0a00003d 	beq	113d0 <_nl_find_msg+0x3e4>
   112d8:	e0213861 	eor	r3, r1, r1, ror #16
   112dc:	e1a03423 	lsr	r3, r3, #8
   112e0:	e3c33cff 	bic	r3, r3, #65280	; 0xff00
   112e4:	e0233461 	eor	r3, r3, r1, ror #8
   112e8:	e2833001 	add	r3, r3, #1
   112ec:	e0202860 	eor	r2, r0, r0, ror #16
   112f0:	e1a02422 	lsr	r2, r2, #8
   112f4:	e50b303c 	str	r3, [fp, #-60]	; 0xffffffc4
   112f8:	e51b3058 	ldr	r3, [fp, #-88]	; 0xffffffa8
   112fc:	e3c22cff 	bic	r2, r2, #65280	; 0xff00
   11300:	e0222460 	eor	r2, r2, r0, ror #8
   11304:	e3530000 	cmp	r3, #0
   11308:	e0899002 	add	r9, r9, r2
   1130c:	0affffb2 	beq	111dc <_nl_find_msg+0x1f0>
   11310:	e51b3060 	ldr	r3, [fp, #-96]	; 0xffffffa0
   11314:	e3530000 	cmp	r3, #0
   11318:	0a000030 	beq	113e0 <_nl_find_msg+0x3f4>
   1131c:	e5934008 	ldr	r4, [r3, #8]
   11320:	e3540000 	cmp	r4, #0
   11324:	0a00002d 	beq	113e0 <_nl_find_msg+0x3f4>
   11328:	e59f3850 	ldr	r3, [pc, #2128]	; 11b80 <_nl_find_msg+0xb94>
   1132c:	e3530000 	cmp	r3, #0
   11330:	0a000001 	beq	1133c <_nl_find_msg+0x350>
   11334:	e2860040 	add	r0, r6, #64	; 0x40
   11338:	e1a00000 	nop			; (mov r0, r0)
   1133c:	e596a03c 	ldr	sl, [r6, #60]	; 0x3c
   11340:	e35a0000 	cmp	sl, #0
   11344:	0a000033 	beq	11418 <_nl_find_msg+0x42c>
   11348:	e08a308a 	add	r3, sl, sl, lsl #1
   1134c:	e1a03103 	lsl	r3, r3, #2
   11350:	e5967038 	ldr	r7, [r6, #56]	; 0x38
   11354:	e243300c 	sub	r3, r3, #12
   11358:	e0877003 	add	r7, r7, r3
   1135c:	ea000002 	b	1136c <_nl_find_msg+0x380>
   11360:	e35a0000 	cmp	sl, #0
   11364:	e247700c 	sub	r7, r7, #12
   11368:	0a00002a 	beq	11418 <_nl_find_msg+0x42c>
   1136c:	e1a01004 	mov	r1, r4
   11370:	e5970000 	ldr	r0, [r7]
   11374:	eb00521b 	bl	25be8 <strcmp>
   11378:	e3500000 	cmp	r0, #0
   1137c:	e24aa001 	sub	sl, sl, #1
   11380:	e1a08007 	mov	r8, r7
   11384:	1afffff5 	bne	11360 <_nl_find_msg+0x374>
   11388:	e59f37f4 	ldr	r3, [pc, #2036]	; 11b84 <_nl_find_msg+0xb98>
   1138c:	e3530000 	cmp	r3, #0
   11390:	1a000042 	bne	114a0 <_nl_find_msg+0x4b4>
   11394:	e5983004 	ldr	r3, [r8, #4]
   11398:	e3730001 	cmn	r3, #1
   1139c:	0affff8e 	beq	111dc <_nl_find_msg+0x1f0>
   113a0:	e5984008 	ldr	r4, [r8, #8]
   113a4:	e3540000 	cmp	r4, #0
   113a8:	0a00013b 	beq	1189c <_nl_find_msg+0x8b0>
   113ac:	e3740001 	cmn	r4, #1
   113b0:	0a000048 	beq	114d8 <_nl_find_msg+0x4ec>
   113b4:	e7944105 	ldr	r4, [r4, r5, lsl #2]
   113b8:	e3540000 	cmp	r4, #0
   113bc:	0a000047 	beq	114e0 <_nl_find_msg+0x4f4>
   113c0:	e5943000 	ldr	r3, [r4]
   113c4:	e2849004 	add	r9, r4, #4
   113c8:	e50b303c 	str	r3, [fp, #-60]	; 0xffffffc4
   113cc:	eaffff82 	b	111dc <_nl_find_msg+0x1f0>
   113d0:	e2813001 	add	r3, r1, #1
   113d4:	e0899000 	add	r9, r9, r0
   113d8:	e50b303c 	str	r3, [fp, #-60]	; 0xffffffc4
   113dc:	eaffff7b 	b	111d0 <_nl_find_msg+0x1e4>
   113e0:	e59f77a0 	ldr	r7, [pc, #1952]	; 11b88 <_nl_find_msg+0xb9c>
   113e4:	e5973008 	ldr	r3, [r7, #8]
   113e8:	e3530000 	cmp	r3, #0
   113ec:	0a00002e 	beq	114ac <_nl_find_msg+0x4c0>
   113f0:	e597400c 	ldr	r4, [r7, #12]
   113f4:	e3540000 	cmp	r4, #0
   113f8:	1affffca 	bne	11328 <_nl_find_msg+0x33c>
   113fc:	ebfffdcf 	bl	10b40 <__aeabi_read_tp>
   11400:	e59f3784 	ldr	r3, [pc, #1924]	; 11b8c <_nl_find_msg+0xba0>
   11404:	e79f3003 	ldr	r3, [pc, r3]
   11408:	e7903003 	ldr	r3, [r0, r3]
   1140c:	e5933000 	ldr	r3, [r3]
   11410:	e593405c 	ldr	r4, [r3, #92]	; 0x5c
   11414:	eaffffc3 	b	11328 <_nl_find_msg+0x33c>
   11418:	e59f3764 	ldr	r3, [pc, #1892]	; 11b84 <_nl_find_msg+0xb98>
   1141c:	e3530000 	cmp	r3, #0
   11420:	0a000001 	beq	1142c <_nl_find_msg+0x440>
   11424:	e2860040 	add	r0, r6, #64	; 0x40
   11428:	e1a00000 	nop			; (mov r0, r0)
   1142c:	e59f375c 	ldr	r3, [pc, #1884]	; 11b90 <_nl_find_msg+0xba4>
   11430:	e3530000 	cmp	r3, #0
   11434:	0a000001 	beq	11440 <_nl_find_msg+0x454>
   11438:	e2860040 	add	r0, r6, #64	; 0x40
   1143c:	e1a00000 	nop			; (mov r0, r0)
   11440:	e596303c 	ldr	r3, [r6, #60]	; 0x3c
   11444:	e5962038 	ldr	r2, [r6, #56]	; 0x38
   11448:	e3530000 	cmp	r3, #0
   1144c:	e50b3040 	str	r3, [fp, #-64]	; 0xffffffc0
   11450:	e50b2044 	str	r2, [fp, #-68]	; 0xffffffbc
   11454:	0a00006c 	beq	1160c <_nl_find_msg+0x620>
   11458:	e1a07003 	mov	r7, r3
   1145c:	e0833083 	add	r3, r3, r3, lsl #1
   11460:	e0823103 	add	r3, r2, r3, lsl #2
   11464:	e243a00c 	sub	sl, r3, #12
   11468:	ea000002 	b	11478 <_nl_find_msg+0x48c>
   1146c:	e3570000 	cmp	r7, #0
   11470:	e24aa00c 	sub	sl, sl, #12
   11474:	0a000064 	beq	1160c <_nl_find_msg+0x620>
   11478:	e1a01004 	mov	r1, r4
   1147c:	e59a0000 	ldr	r0, [sl]
   11480:	eb0051d8 	bl	25be8 <strcmp>
   11484:	e3500000 	cmp	r0, #0
   11488:	e2477001 	sub	r7, r7, #1
   1148c:	e1a0800a 	mov	r8, sl
   11490:	1afffff5 	bne	1146c <_nl_find_msg+0x480>
   11494:	e59f36e8 	ldr	r3, [pc, #1768]	; 11b84 <_nl_find_msg+0xb98>
   11498:	e3530000 	cmp	r3, #0
   1149c:	0affffbc 	beq	11394 <_nl_find_msg+0x3a8>
   114a0:	e2860040 	add	r0, r6, #64	; 0x40
   114a4:	e1a00000 	nop			; (mov r0, r0)
   114a8:	eaffffb9 	b	11394 <_nl_find_msg+0x3a8>
   114ac:	e59f06e0 	ldr	r0, [pc, #1760]	; 11b94 <_nl_find_msg+0xba8>
   114b0:	eb0012cb 	bl	15fe4 <getenv>
   114b4:	e2508000 	subs	r8, r0, #0
   114b8:	0a000002 	beq	114c8 <_nl_find_msg+0x4dc>
   114bc:	e5d83000 	ldrb	r3, [r8]
   114c0:	e3530000 	cmp	r3, #0
   114c4:	1a00011d 	bne	11940 <_nl_find_msg+0x954>
   114c8:	e597400c 	ldr	r4, [r7, #12]
   114cc:	e3a03001 	mov	r3, #1
   114d0:	e5873008 	str	r3, [r7, #8]
   114d4:	eaffffc6 	b	113f4 <_nl_find_msg+0x408>
   114d8:	e3e09000 	mvn	r9, #0
   114dc:	eaffff6a 	b	1128c <_nl_find_msg+0x2a0>
   114e0:	e3a01001 	mov	r1, #1
   114e4:	e59f26ac 	ldr	r2, [pc, #1708]	; 11b98 <_nl_find_msg+0xbac>
   114e8:	e5923000 	ldr	r3, [r2]
   114ec:	e1530004 	cmp	r3, r4
   114f0:	1a000005 	bne	1150c <_nl_find_msg+0x520>
   114f4:	e1a00004 	mov	r0, r4
   114f8:	e3e03a0f 	mvn	r3, #61440	; 0xf000
   114fc:	e1a0e00f 	mov	lr, pc
   11500:	e243f03f 	sub	pc, r3, #63	; 0x3f
   11504:	3afffff7 	bcc	114e8 <_nl_find_msg+0x4fc>
   11508:	e1a03004 	mov	r3, r4
   1150c:	e3530000 	cmp	r3, #0
   11510:	1a000166 	bne	11ab0 <_nl_find_msg+0xac4>
   11514:	e59f766c 	ldr	r7, [pc, #1644]	; 11b88 <_nl_find_msg+0xb9c>
   11518:	e24ba024 	sub	sl, fp, #36	; 0x24
   1151c:	e5972014 	ldr	r2, [r7, #20]
   11520:	e3a04000 	mov	r4, #0
   11524:	e2822004 	add	r2, r2, #4
   11528:	e5973018 	ldr	r3, [r7, #24]
   1152c:	e50b9034 	str	r9, [fp, #-52]	; 0xffffffcc
   11530:	e52a200c 	str	r2, [sl, #-12]!
   11534:	e50b5038 	str	r5, [fp, #-56]	; 0xffffffc8
   11538:	ea000010 	b	11580 <_nl_find_msg+0x594>
   1153c:	e2844001 	add	r4, r4, #1
   11540:	e0643404 	rsb	r3, r4, r4, lsl #8
   11544:	e5975004 	ldr	r5, [r7, #4]
   11548:	e1a06203 	lsl	r6, r3, #4
   1154c:	e1a01006 	mov	r1, r6
   11550:	e1a00005 	mov	r0, r5
   11554:	e5876018 	str	r6, [r7, #24]
   11558:	eb004cce 	bl	24898 <__libc_realloc>
   1155c:	e3500000 	cmp	r0, #0
   11560:	0a0000ac 	beq	11818 <_nl_find_msg+0x82c>
   11564:	e5870004 	str	r0, [r7, #4]
   11568:	e2463004 	sub	r3, r6, #4
   1156c:	e2802004 	add	r2, r0, #4
   11570:	e2800008 	add	r0, r0, #8
   11574:	e5873018 	str	r3, [r7, #24]
   11578:	e5872014 	str	r2, [r7, #20]
   1157c:	e50b0030 	str	r0, [fp, #-48]	; 0xffffffd0
   11580:	e3530003 	cmp	r3, #3
   11584:	8a00000d 	bhi	115c0 <_nl_find_msg+0x5d4>
   11588:	e3540000 	cmp	r4, #0
   1158c:	1affffea 	bne	1153c <_nl_find_msg+0x550>
   11590:	e3a03eff 	mov	r3, #4080	; 0xff0
   11594:	e1a00003 	mov	r0, r3
   11598:	e5873018 	str	r3, [r7, #24]
   1159c:	eb004ac2 	bl	240ac <__libc_malloc>
   115a0:	e3500000 	cmp	r0, #0
   115a4:	0a00009f 	beq	11828 <_nl_find_msg+0x83c>
   115a8:	e5972004 	ldr	r2, [r7, #4]
   115ac:	e59f35e8 	ldr	r3, [pc, #1512]	; 11b9c <_nl_find_msg+0xbb0>
   115b0:	e5802000 	str	r2, [r0]
   115b4:	e5870004 	str	r0, [r7, #4]
   115b8:	e3a04001 	mov	r4, #1
   115bc:	eaffffea 	b	1156c <_nl_find_msg+0x580>
   115c0:	e51b1030 	ldr	r1, [fp, #-48]	; 0xffffffd0
   115c4:	e2433004 	sub	r3, r3, #4
   115c8:	e0813003 	add	r3, r1, r3
   115cc:	e5980004 	ldr	r0, [r8, #4]
   115d0:	e51b2034 	ldr	r2, [fp, #-52]	; 0xffffffcc
   115d4:	e58d3000 	str	r3, [sp]
   115d8:	e51b303c 	ldr	r3, [fp, #-60]	; 0xffffffc4
   115dc:	e24b102c 	sub	r1, fp, #44	; 0x2c
   115e0:	e0822003 	add	r2, r2, r3
   115e4:	e58d1004 	str	r1, [sp, #4]
   115e8:	e1a0300a 	mov	r3, sl
   115ec:	e24b1034 	sub	r1, fp, #52	; 0x34
   115f0:	eb006c7f 	bl	2c7f4 <__gconv>
   115f4:	e3d03004 	bics	r3, r0, #4
   115f8:	0a0000e2 	beq	11988 <_nl_find_msg+0x99c>
   115fc:	e3500005 	cmp	r0, #5
   11600:	1a000105 	bne	11a1c <_nl_find_msg+0xa30>
   11604:	e50b9034 	str	r9, [fp, #-52]	; 0xffffffcc
   11608:	eaffffde 	b	11588 <_nl_find_msg+0x59c>
   1160c:	e51b3040 	ldr	r3, [fp, #-64]	; 0xffffffc0
   11610:	e51b0044 	ldr	r0, [fp, #-68]	; 0xffffffbc
   11614:	e2837001 	add	r7, r3, #1
   11618:	e0877087 	add	r7, r7, r7, lsl #1
   1161c:	e3500000 	cmp	r0, #0
   11620:	e1a07107 	lsl	r7, r7, #2
   11624:	0a0000c1 	beq	11930 <_nl_find_msg+0x944>
   11628:	e1a01007 	mov	r1, r7
   1162c:	eb004c99 	bl	24898 <__libc_realloc>
   11630:	e1a0a000 	mov	sl, r0
   11634:	e35a0000 	cmp	sl, #0
   11638:	0a0000cb 	beq	1196c <_nl_find_msg+0x980>
   1163c:	e1a00004 	mov	r0, r4
   11640:	e586a038 	str	sl, [r6, #56]	; 0x38
   11644:	eb0051d4 	bl	25d9c <__strdup>
   11648:	e2504000 	subs	r4, r0, #0
   1164c:	0a0000c6 	beq	1196c <_nl_find_msg+0x980>
   11650:	e3e03000 	mvn	r3, #0
   11654:	e247700c 	sub	r7, r7, #12
   11658:	e24b202c 	sub	r2, fp, #44	; 0x2c
   1165c:	e08a8007 	add	r8, sl, r7
   11660:	e78a4007 	str	r4, [sl, r7]
   11664:	e51b1060 	ldr	r1, [fp, #-96]	; 0xffffffa0
   11668:	e5883004 	str	r3, [r8, #4]
   1166c:	e51b004c 	ldr	r0, [fp, #-76]	; 0xffffffb4
   11670:	e3a03000 	mov	r3, #0
   11674:	e58d2000 	str	r2, [sp]
   11678:	e59f2520 	ldr	r2, [pc, #1312]	; 11ba0 <_nl_find_msg+0xbb4>
   1167c:	ebfffe5a 	bl	10fec <_nl_find_msg>
   11680:	e3700001 	cmn	r0, #1
   11684:	e1a03000 	mov	r3, r0
   11688:	0a0000fb 	beq	11a7c <_nl_find_msg+0xa90>
   1168c:	e3500000 	cmp	r0, #0
   11690:	0a00005a 	beq	11800 <_nl_find_msg+0x814>
   11694:	e59f1508 	ldr	r1, [pc, #1288]	; 11ba4 <_nl_find_msg+0xbb8>
   11698:	eb00536a 	bl	26448 <strstr>
   1169c:	e3500000 	cmp	r0, #0
   116a0:	0a000056 	beq	11800 <_nl_find_msg+0x814>
   116a4:	e280a008 	add	sl, r0, #8
   116a8:	e59f14f8 	ldr	r1, [pc, #1272]	; 11ba8 <_nl_find_msg+0xbbc>
   116ac:	e1a0000a 	mov	r0, sl
   116b0:	eb005160 	bl	25c38 <strcspn>
   116b4:	e280300f 	add	r3, r0, #15
   116b8:	e3c33007 	bic	r3, r3, #7
   116bc:	e04dd003 	sub	sp, sp, r3
   116c0:	e28d7008 	add	r7, sp, #8
   116c4:	e1a02000 	mov	r2, r0
   116c8:	e1a0100a 	mov	r1, sl
   116cc:	e1a00007 	mov	r0, r7
   116d0:	eb005699 	bl	2713c <__mempcpy>
   116d4:	e3a0c000 	mov	ip, #0
   116d8:	e1a02004 	mov	r2, r4
   116dc:	e5c0c000 	strb	ip, [r0]
   116e0:	e1a00004 	mov	r0, r4
   116e4:	ea000002 	b	116f4 <_nl_find_msg+0x708>
   116e8:	e1a00003 	mov	r0, r3
   116ec:	e351002f 	cmp	r1, #47	; 0x2f
   116f0:	028cc001 	addeq	ip, ip, #1
   116f4:	e1a03000 	mov	r3, r0
   116f8:	e4d31001 	ldrb	r1, [r3], #1
   116fc:	e3510000 	cmp	r1, #0
   11700:	1afffff8 	bne	116e8 <_nl_find_msg+0x6fc>
   11704:	e0401004 	sub	r1, r0, r4
   11708:	e2811019 	add	r1, r1, #25
   1170c:	e5d43000 	ldrb	r3, [r4]
   11710:	e3c11007 	bic	r1, r1, #7
   11714:	e04dd001 	sub	sp, sp, r1
   11718:	e28da008 	add	sl, sp, #8
   1171c:	e3530000 	cmp	r3, #0
   11720:	e1a0000a 	mov	r0, sl
   11724:	0a000006 	beq	11744 <_nl_find_msg+0x758>
   11728:	e59f147c 	ldr	r1, [pc, #1148]	; 11bac <_nl_find_msg+0xbc0>
   1172c:	e591e03c 	ldr	lr, [r1, #60]	; 0x3c
   11730:	e79e1103 	ldr	r1, [lr, r3, lsl #2]
   11734:	e5f23001 	ldrb	r3, [r2, #1]!
   11738:	e4c01001 	strb	r1, [r0], #1
   1173c:	e3530000 	cmp	r3, #0
   11740:	1afffffa 	bne	11730 <_nl_find_msg+0x744>
   11744:	e35c0001 	cmp	ip, #1
   11748:	9a0000cd 	bls	11a84 <_nl_find_msg+0xa98>
   1174c:	e3a0c000 	mov	ip, #0
   11750:	e1a01007 	mov	r1, r7
   11754:	e5c0c000 	strb	ip, [r0]
   11758:	e1a00007 	mov	r0, r7
   1175c:	ea000002 	b	1176c <_nl_find_msg+0x780>
   11760:	e1a00003 	mov	r0, r3
   11764:	e352002f 	cmp	r2, #47	; 0x2f
   11768:	028cc001 	addeq	ip, ip, #1
   1176c:	e1a03000 	mov	r3, r0
   11770:	e4d32001 	ldrb	r2, [r3], #1
   11774:	e3520000 	cmp	r2, #0
   11778:	1afffff8 	bne	11760 <_nl_find_msg+0x774>
   1177c:	e0402007 	sub	r2, r0, r7
   11780:	e2822011 	add	r2, r2, #17
   11784:	e5d73000 	ldrb	r3, [r7]
   11788:	e3c22007 	bic	r2, r2, #7
   1178c:	e04dd002 	sub	sp, sp, r2
   11790:	e28d7008 	add	r7, sp, #8
   11794:	e3530000 	cmp	r3, #0
   11798:	e1a02007 	mov	r2, r7
   1179c:	0a000006 	beq	117bc <_nl_find_msg+0x7d0>
   117a0:	e59f0404 	ldr	r0, [pc, #1028]	; 11bac <_nl_find_msg+0xbc0>
   117a4:	e590e03c 	ldr	lr, [r0, #60]	; 0x3c
   117a8:	e79e0103 	ldr	r0, [lr, r3, lsl #2]
   117ac:	e5f13001 	ldrb	r3, [r1, #1]!
   117b0:	e4c20001 	strb	r0, [r2], #1
   117b4:	e3530000 	cmp	r3, #0
   117b8:	1afffffa 	bne	117a8 <_nl_find_msg+0x7bc>
   117bc:	e35c0001 	cmp	ip, #1
   117c0:	8a000005 	bhi	117dc <_nl_find_msg+0x7f0>
   117c4:	e3a0302f 	mov	r3, #47	; 0x2f
   117c8:	e35c0000 	cmp	ip, #0
   117cc:	e5c23000 	strb	r3, [r2]
   117d0:	05c23001 	strbeq	r3, [r2, #1]
   117d4:	12822001 	addne	r2, r2, #1
   117d8:	02822002 	addeq	r2, r2, #2
   117dc:	e3a0c000 	mov	ip, #0
   117e0:	e1a01007 	mov	r1, r7
   117e4:	e5c2c000 	strb	ip, [r2]
   117e8:	e1a0000a 	mov	r0, sl
   117ec:	e3a03001 	mov	r3, #1
   117f0:	e2882004 	add	r2, r8, #4
   117f4:	eb006ace 	bl	2c334 <__gconv_open>
   117f8:	e3500000 	cmp	r0, #0
   117fc:	1a0000c3 	bne	11b10 <_nl_find_msg+0xb24>
   11800:	e3a02000 	mov	r2, #0
   11804:	e596303c 	ldr	r3, [r6, #60]	; 0x3c
   11808:	e5882008 	str	r2, [r8, #8]
   1180c:	e2833001 	add	r3, r3, #1
   11810:	e586303c 	str	r3, [r6, #60]	; 0x3c
   11814:	eaffff1e 	b	11494 <_nl_find_msg+0x4a8>
   11818:	e5953000 	ldr	r3, [r5]
   1181c:	e1a00005 	mov	r0, r5
   11820:	e5873004 	str	r3, [r7, #4]
   11824:	eb004bdc 	bl	2479c <__free>
   11828:	e3a03000 	mov	r3, #0
   1182c:	e59f6364 	ldr	r6, [pc, #868]	; 11b98 <_nl_find_msg+0xbac>
   11830:	e5873014 	str	r3, [r7, #20]
   11834:	e5873018 	str	r3, [r7, #24]
   11838:	e5975010 	ldr	r5, [r7, #16]
   1183c:	e3a01000 	mov	r1, #0
   11840:	e1a04005 	mov	r4, r5
   11844:	e1a02006 	mov	r2, r6
   11848:	e5923000 	ldr	r3, [r2]
   1184c:	e1530004 	cmp	r3, r4
   11850:	1a000005 	bne	1186c <_nl_find_msg+0x880>
   11854:	e1a00004 	mov	r0, r4
   11858:	e3e03a0f 	mvn	r3, #61440	; 0xf000
   1185c:	e1a0e00f 	mov	lr, pc
   11860:	e243f03f 	sub	pc, r3, #63	; 0x3f
   11864:	3afffff7 	bcc	11848 <_nl_find_msg+0x85c>
   11868:	e1a03004 	mov	r3, r4
   1186c:	e1550003 	cmp	r5, r3
   11870:	1afffff0 	bne	11838 <_nl_find_msg+0x84c>
   11874:	e3550001 	cmp	r5, #1
   11878:	daffff16 	ble	114d8 <_nl_find_msg+0x4ec>
   1187c:	e1a00006 	mov	r0, r6
   11880:	e3a01081 	mov	r1, #129	; 0x81
   11884:	e3a02001 	mov	r2, #1
   11888:	e3a03000 	mov	r3, #0
   1188c:	e3a070f0 	mov	r7, #240	; 0xf0
   11890:	ef000000 	svc	0x00000000
   11894:	e3e09000 	mvn	r9, #0
   11898:	eafffe7b 	b	1128c <_nl_find_msg+0x2a0>
   1189c:	e3a01001 	mov	r1, #1
   118a0:	e59f22f0 	ldr	r2, [pc, #752]	; 11b98 <_nl_find_msg+0xbac>
   118a4:	e5923000 	ldr	r3, [r2]
   118a8:	e1530004 	cmp	r3, r4
   118ac:	1a000005 	bne	118c8 <_nl_find_msg+0x8dc>
   118b0:	e1a00004 	mov	r0, r4
   118b4:	e3e03a0f 	mvn	r3, #61440	; 0xf000
   118b8:	e1a0e00f 	mov	lr, pc
   118bc:	e243f03f 	sub	pc, r3, #63	; 0x3f
   118c0:	3afffff7 	bcc	118a4 <_nl_find_msg+0x8b8>
   118c4:	e1a03004 	mov	r3, r4
   118c8:	e3530000 	cmp	r3, #0
   118cc:	1a00008c 	bne	11b04 <_nl_find_msg+0xb18>
   118d0:	e5983008 	ldr	r3, [r8, #8]
   118d4:	e3530000 	cmp	r3, #0
   118d8:	0a000077 	beq	11abc <_nl_find_msg+0xad0>
   118dc:	e59f72a4 	ldr	r7, [pc, #676]	; 11b88 <_nl_find_msg+0xb9c>
   118e0:	e287a010 	add	sl, r7, #16
   118e4:	e5976010 	ldr	r6, [r7, #16]
   118e8:	e3a01000 	mov	r1, #0
   118ec:	e1a04006 	mov	r4, r6
   118f0:	e1a0200a 	mov	r2, sl
   118f4:	e5923000 	ldr	r3, [r2]
   118f8:	e1530004 	cmp	r3, r4
   118fc:	1a000005 	bne	11918 <_nl_find_msg+0x92c>
   11900:	e1a00004 	mov	r0, r4
   11904:	e3e03a0f 	mvn	r3, #61440	; 0xf000
   11908:	e1a0e00f 	mov	lr, pc
   1190c:	e243f03f 	sub	pc, r3, #63	; 0x3f
   11910:	3afffff7 	bcc	118f4 <_nl_find_msg+0x908>
   11914:	e1a03004 	mov	r3, r4
   11918:	e1560003 	cmp	r6, r3
   1191c:	1afffff0 	bne	118e4 <_nl_find_msg+0x8f8>
   11920:	e3560001 	cmp	r6, #1
   11924:	ca00006f 	bgt	11ae8 <_nl_find_msg+0xafc>
   11928:	e5984008 	ldr	r4, [r8, #8]
   1192c:	eafffe9e 	b	113ac <_nl_find_msg+0x3c0>
   11930:	e1a00007 	mov	r0, r7
   11934:	eb0049dc 	bl	240ac <__libc_malloc>
   11938:	e1a0a000 	mov	sl, r0
   1193c:	eaffff3c 	b	11634 <_nl_find_msg+0x648>
   11940:	eb005122 	bl	25dd0 <strlen>
   11944:	e280a001 	add	sl, r0, #1
   11948:	e1a0000a 	mov	r0, sl
   1194c:	eb0049d6 	bl	240ac <__libc_malloc>
   11950:	e2504000 	subs	r4, r0, #0
   11954:	0a000002 	beq	11964 <_nl_find_msg+0x978>
   11958:	e1a0200a 	mov	r2, sl
   1195c:	e1a01008 	mov	r1, r8
   11960:	eb005616 	bl	271c0 <memcpy>
   11964:	e587400c 	str	r4, [r7, #12]
   11968:	eafffed7 	b	114cc <_nl_find_msg+0x4e0>
   1196c:	e59f3210 	ldr	r3, [pc, #528]	; 11b84 <_nl_find_msg+0xb98>
   11970:	e3530000 	cmp	r3, #0
   11974:	0afffed7 	beq	114d8 <_nl_find_msg+0x4ec>
   11978:	e2860040 	add	r0, r6, #64	; 0x40
   1197c:	e1a00000 	nop			; (mov r0, r0)
   11980:	e3e09000 	mvn	r9, #0
   11984:	eafffe40 	b	1128c <_nl_find_msg+0x2a0>
   11988:	e51b2030 	ldr	r2, [fp, #-48]	; 0xffffffd0
   1198c:	e5970014 	ldr	r0, [r7, #20]
   11990:	e5973018 	ldr	r3, [r7, #24]
   11994:	e0421000 	sub	r1, r2, r0
   11998:	e0433001 	sub	r3, r3, r1
   1199c:	e203c003 	and	ip, r3, #3
   119a0:	e51b5038 	ldr	r5, [fp, #-56]	; 0xffffffc8
   119a4:	e082200c 	add	r2, r2, ip
   119a8:	e598c008 	ldr	ip, [r8, #8]
   119ac:	e2411004 	sub	r1, r1, #4
   119b0:	e3c33003 	bic	r3, r3, #3
   119b4:	e59f91dc 	ldr	r9, [pc, #476]	; 11b98 <_nl_find_msg+0xbac>
   119b8:	e5801000 	str	r1, [r0]
   119bc:	e5872014 	str	r2, [r7, #20]
   119c0:	e78c0105 	str	r0, [ip, r5, lsl #2]
   119c4:	e5873018 	str	r3, [r7, #24]
   119c8:	e1a05105 	lsl	r5, r5, #2
   119cc:	e5976010 	ldr	r6, [r7, #16]
   119d0:	e3a01000 	mov	r1, #0
   119d4:	e1a04006 	mov	r4, r6
   119d8:	e1a02009 	mov	r2, r9
   119dc:	e5923000 	ldr	r3, [r2]
   119e0:	e1530004 	cmp	r3, r4
   119e4:	1a000005 	bne	11a00 <_nl_find_msg+0xa14>
   119e8:	e1a00004 	mov	r0, r4
   119ec:	e3e03a0f 	mvn	r3, #61440	; 0xf000
   119f0:	e1a0e00f 	mov	lr, pc
   119f4:	e243f03f 	sub	pc, r3, #63	; 0x3f
   119f8:	3afffff7 	bcc	119dc <_nl_find_msg+0x9f0>
   119fc:	e1a03004 	mov	r3, r4
   11a00:	e1560003 	cmp	r6, r3
   11a04:	1afffff0 	bne	119cc <_nl_find_msg+0x9e0>
   11a08:	e3560001 	cmp	r6, #1
   11a0c:	ca00004a 	bgt	11b3c <_nl_find_msg+0xb50>
   11a10:	e5983008 	ldr	r3, [r8, #8]
   11a14:	e7934005 	ldr	r4, [r3, r5]
   11a18:	eafffe68 	b	113c0 <_nl_find_msg+0x3d4>
   11a1c:	e59f6174 	ldr	r6, [pc, #372]	; 11b98 <_nl_find_msg+0xbac>
   11a20:	e5975010 	ldr	r5, [r7, #16]
   11a24:	e3a01000 	mov	r1, #0
   11a28:	e1a04005 	mov	r4, r5
   11a2c:	e1a02006 	mov	r2, r6
   11a30:	e5923000 	ldr	r3, [r2]
   11a34:	e1530004 	cmp	r3, r4
   11a38:	1a000005 	bne	11a54 <_nl_find_msg+0xa68>
   11a3c:	e1a00004 	mov	r0, r4
   11a40:	e3e03a0f 	mvn	r3, #61440	; 0xf000
   11a44:	e1a0e00f 	mov	lr, pc
   11a48:	e243f03f 	sub	pc, r3, #63	; 0x3f
   11a4c:	3afffff7 	bcc	11a30 <_nl_find_msg+0xa44>
   11a50:	e1a03004 	mov	r3, r4
   11a54:	e1550003 	cmp	r5, r3
   11a58:	1afffff0 	bne	11a20 <_nl_find_msg+0xa34>
   11a5c:	e3550001 	cmp	r5, #1
   11a60:	dafffe08 	ble	11288 <_nl_find_msg+0x29c>
   11a64:	e1a00006 	mov	r0, r6
   11a68:	e3a01081 	mov	r1, #129	; 0x81
   11a6c:	e3a02001 	mov	r2, #1
   11a70:	e3a03000 	mov	r3, #0
   11a74:	e3a070f0 	mov	r7, #240	; 0xf0
   11a78:	ef000000 	svc	0x00000000
   11a7c:	e1a09003 	mov	r9, r3
   11a80:	eafffe01 	b	1128c <_nl_find_msg+0x2a0>
   11a84:	e3a0302f 	mov	r3, #47	; 0x2f
   11a88:	e35c0000 	cmp	ip, #0
   11a8c:	e5c03000 	strb	r3, [r0]
   11a90:	12800001 	addne	r0, r0, #1
   11a94:	1affff2c 	bne	1174c <_nl_find_msg+0x760>
   11a98:	e5c03001 	strb	r3, [r0, #1]
   11a9c:	e3a02008 	mov	r2, #8
   11aa0:	e59f1108 	ldr	r1, [pc, #264]	; 11bb0 <_nl_find_msg+0xbc4>
   11aa4:	e2800002 	add	r0, r0, #2
   11aa8:	eb0055a3 	bl	2713c <__mempcpy>
   11aac:	eaffff26 	b	1174c <_nl_find_msg+0x760>
   11ab0:	e1a00002 	mov	r0, r2
   11ab4:	eb006378 	bl	2a89c <__lll_lock_wait_private>
   11ab8:	eafffe95 	b	11514 <_nl_find_msg+0x528>
   11abc:	e5960020 	ldr	r0, [r6, #32]
   11ac0:	e51b3038 	ldr	r3, [fp, #-56]	; 0xffffffc8
   11ac4:	e3a01004 	mov	r1, #4
   11ac8:	e0830000 	add	r0, r3, r0
   11acc:	eb004c98 	bl	24d34 <__calloc>
   11ad0:	e3500000 	cmp	r0, #0
   11ad4:	15880008 	strne	r0, [r8, #8]
   11ad8:	1afffe8d 	bne	11514 <_nl_find_msg+0x528>
   11adc:	e3e03000 	mvn	r3, #0
   11ae0:	e5883008 	str	r3, [r8, #8]
   11ae4:	eaffff7c 	b	118dc <_nl_find_msg+0x8f0>
   11ae8:	e1a0000a 	mov	r0, sl
   11aec:	e3a01081 	mov	r1, #129	; 0x81
   11af0:	e3a02001 	mov	r2, #1
   11af4:	e3a03000 	mov	r3, #0
   11af8:	e3a070f0 	mov	r7, #240	; 0xf0
   11afc:	ef000000 	svc	0x00000000
   11b00:	eaffff88 	b	11928 <_nl_find_msg+0x93c>
   11b04:	e1a00002 	mov	r0, r2
   11b08:	eb006363 	bl	2a89c <__lll_lock_wait_private>
   11b0c:	eaffff6f 	b	118d0 <_nl_find_msg+0x8e4>
   11b10:	e3700001 	cmn	r0, #1
   11b14:	0a000010 	beq	11b5c <_nl_find_msg+0xb70>
   11b18:	e59f3064 	ldr	r3, [pc, #100]	; 11b84 <_nl_find_msg+0xb98>
   11b1c:	e3530000 	cmp	r3, #0
   11b20:	0a000001 	beq	11b2c <_nl_find_msg+0xb40>
   11b24:	e2860040 	add	r0, r6, #64	; 0x40
   11b28:	e1a00000 	nop			; (mov r0, r0)
   11b2c:	e1a00004 	mov	r0, r4
   11b30:	eb004b19 	bl	2479c <__free>
   11b34:	e3a03000 	mov	r3, #0
   11b38:	eaffffcf 	b	11a7c <_nl_find_msg+0xa90>
   11b3c:	e1a00009 	mov	r0, r9
   11b40:	e3a01081 	mov	r1, #129	; 0x81
   11b44:	e3a02001 	mov	r2, #1
   11b48:	e3a03000 	mov	r3, #0
   11b4c:	e3a070f0 	mov	r7, #240	; 0xf0
   11b50:	ef000000 	svc	0x00000000
   11b54:	eaffffad 	b	11a10 <_nl_find_msg+0xa24>
   11b58:	eb0063d2 	bl	2aaa8 <__stack_chk_fail>
   11b5c:	e5880004 	str	r0, [r8, #4]
   11b60:	eaffff26 	b	11800 <_nl_find_msg+0x814>
   11b64:	e51b3038 	ldr	r3, [fp, #-56]	; 0xffffffc8
   11b68:	e1a0700a 	mov	r7, sl
   11b6c:	e1530005 	cmp	r3, r5
   11b70:	90457003 	subls	r7, r5, r3
   11b74:	8afffdd1 	bhi	112c0 <_nl_find_msg+0x2d4>
   11b78:	eafffd8f 	b	111bc <_nl_find_msg+0x1d0>
   11b7c:	00085b98 	.word	0x00085b98
	...
   11b88:	00087104 	.word	0x00087104
   11b8c:	00074c38 	.word	0x00074c38
   11b90:	00000000 	.word	0x00000000
   11b94:	00060c48 	.word	0x00060c48
   11b98:	00087114 	.word	0x00087114
   11b9c:	00000fec 	.word	0x00000fec
   11ba0:	0007485c 	.word	0x0007485c
   11ba4:	00060c58 	.word	0x00060c58
   11ba8:	00060c64 	.word	0x00060c64
   11bac:	0006faf8 	.word	0x0006faf8
   11bb0:	00062144 	.word	0x00062144

00011bb4 <__dcigettext>:
   11bb4:	e92d4ff0 	push	{r4, r5, r6, r7, r8, r9, sl, fp, lr}
   11bb8:	e28db020 	add	fp, sp, #32
   11bbc:	e24dd064 	sub	sp, sp, #100	; 0x64
   11bc0:	e3a0c000 	mov	ip, #0
   11bc4:	e59fa6cc 	ldr	sl, [pc, #1740]	; 12298 <__dcigettext+0x6e4>
   11bc8:	e2519000 	subs	r9, r1, #0
   11bcc:	e59a1000 	ldr	r1, [sl]
   11bd0:	e50b2064 	str	r2, [fp, #-100]	; 0xffffff9c
   11bd4:	e50b3060 	str	r3, [fp, #-96]	; 0xffffffa0
   11bd8:	e50b1028 	str	r1, [fp, #-40]	; 0xffffffd8
   11bdc:	e50bc050 	str	ip, [fp, #-80]	; 0xffffffb0
   11be0:	0a000153 	beq	12134 <__dcigettext+0x580>
   11be4:	e59b3008 	ldr	r3, [fp, #8]
   11be8:	e2434006 	sub	r4, r3, #6
   11bec:	e16f4f14 	clz	r4, r4
   11bf0:	e1a042a4 	lsr	r4, r4, #5
   11bf4:	e353000c 	cmp	r3, #12
   11bf8:	83844001 	orrhi	r4, r4, #1
   11bfc:	e3540000 	cmp	r4, #0
   11c00:	0a00000c 	beq	11c38 <__dcigettext+0x84>
   11c04:	e51b3060 	ldr	r3, [fp, #-96]	; 0xffffffa0
   11c08:	e59b2004 	ldr	r2, [fp, #4]
   11c0c:	e3520001 	cmp	r2, #1
   11c10:	13530000 	cmpne	r3, #0
   11c14:	1a0000b4 	bne	11eec <__dcigettext+0x338>
   11c18:	e1a03009 	mov	r3, r9
   11c1c:	e51b1028 	ldr	r1, [fp, #-40]	; 0xffffffd8
   11c20:	e59a2000 	ldr	r2, [sl]
   11c24:	e1a00003 	mov	r0, r3
   11c28:	e1510002 	cmp	r1, r2
   11c2c:	1a000198 	bne	12294 <__dcigettext+0x6e0>
   11c30:	e24bd020 	sub	sp, fp, #32
   11c34:	e8bd8ff0 	pop	{r4, r5, r6, r7, r8, r9, sl, fp, pc}
   11c38:	e1a08000 	mov	r8, r0
   11c3c:	ebfffbbf 	bl	10b40 <__aeabi_read_tp>
   11c40:	e59f3654 	ldr	r3, [pc, #1620]	; 1229c <__dcigettext+0x6e8>
   11c44:	e59f5654 	ldr	r5, [pc, #1620]	; 122a0 <__dcigettext+0x6ec>
   11c48:	e79f3003 	ldr	r3, [pc, r3]
   11c4c:	e3550000 	cmp	r5, #0
   11c50:	e7903003 	ldr	r3, [r0, r3]
   11c54:	e50b306c 	str	r3, [fp, #-108]	; 0xffffff94
   11c58:	0a0000a5 	beq	11ef4 <__dcigettext+0x340>
   11c5c:	e59f0640 	ldr	r0, [pc, #1600]	; 122a4 <__dcigettext+0x6f0>
   11c60:	e1a00000 	nop			; (mov r0, r0)
   11c64:	e59f063c 	ldr	r0, [pc, #1596]	; 122a8 <__dcigettext+0x6f4>
   11c68:	e1a00000 	nop			; (mov r0, r0)
   11c6c:	e3580000 	cmp	r8, #0
   11c70:	0a0000aa 	beq	11f20 <__dcigettext+0x36c>
   11c74:	e59b0008 	ldr	r0, [fp, #8]
   11c78:	e50b4038 	str	r4, [fp, #-56]	; 0xffffffc8
   11c7c:	e50b902c 	str	r9, [fp, #-44]	; 0xffffffd4
   11c80:	e50b8048 	str	r8, [fp, #-72]	; 0xffffffb8
   11c84:	e50b0044 	str	r0, [fp, #-68]	; 0xffffffbc
   11c88:	eb009566 	bl	37228 <__current_locale_name>
   11c8c:	e50b0074 	str	r0, [fp, #-116]	; 0xffffff8c
   11c90:	e50b0040 	str	r0, [fp, #-64]	; 0xffffffc0
   11c94:	e59f0610 	ldr	r0, [pc, #1552]	; 122ac <__dcigettext+0x6f8>
   11c98:	e1a00000 	nop			; (mov r0, r0)
   11c9c:	e59f260c 	ldr	r2, [pc, #1548]	; 122b0 <__dcigettext+0x6fc>
   11ca0:	e59f160c 	ldr	r1, [pc, #1548]	; 122b4 <__dcigettext+0x700>
   11ca4:	e24b0048 	sub	r0, fp, #72	; 0x48
   11ca8:	eb005fb8 	bl	29b90 <__tfind>
   11cac:	e59f3604 	ldr	r3, [pc, #1540]	; 122b8 <__dcigettext+0x704>
   11cb0:	e50b0068 	str	r0, [fp, #-104]	; 0xffffff98
   11cb4:	e3530000 	cmp	r3, #0
   11cb8:	0a000001 	beq	11cc4 <__dcigettext+0x110>
   11cbc:	e59f05e8 	ldr	r0, [pc, #1512]	; 122ac <__dcigettext+0x6f8>
   11cc0:	e1a00000 	nop			; (mov r0, r0)
   11cc4:	e51b3068 	ldr	r3, [fp, #-104]	; 0xffffff98
   11cc8:	e3530000 	cmp	r3, #0
   11ccc:	0a000005 	beq	11ce8 <__dcigettext+0x134>
   11cd0:	e5931000 	ldr	r1, [r3]
   11cd4:	e59f35e0 	ldr	r3, [pc, #1504]	; 122bc <__dcigettext+0x708>
   11cd8:	e591200c 	ldr	r2, [r1, #12]
   11cdc:	e5933000 	ldr	r3, [r3]
   11ce0:	e1520003 	cmp	r2, r3
   11ce4:	0a0000f7 	beq	120c8 <__dcigettext+0x514>
   11ce8:	e59f35d0 	ldr	r3, [pc, #1488]	; 122c0 <__dcigettext+0x70c>
   11cec:	e5935000 	ldr	r5, [r3]
   11cf0:	e3550000 	cmp	r5, #0
   11cf4:	1a000004 	bne	11d0c <__dcigettext+0x158>
   11cf8:	ea0000b0 	b	11fc0 <__dcigettext+0x40c>
   11cfc:	ba0000ae 	blt	11fbc <__dcigettext+0x408>
   11d00:	e5955000 	ldr	r5, [r5]
   11d04:	e3550000 	cmp	r5, #0
   11d08:	0a0000ac 	beq	11fc0 <__dcigettext+0x40c>
   11d0c:	e285100c 	add	r1, r5, #12
   11d10:	e1a00008 	mov	r0, r8
   11d14:	eb004fb3 	bl	25be8 <strcmp>
   11d18:	e2501000 	subs	r1, r0, #0
   11d1c:	1afffff6 	bne	11cfc <__dcigettext+0x148>
   11d20:	e5957004 	ldr	r7, [r5, #4]
   11d24:	e5d73000 	ldrb	r3, [r7]
   11d28:	e353002f 	cmp	r3, #47	; 0x2f
   11d2c:	0a00000d 	beq	11d68 <__dcigettext+0x1b4>
   11d30:	eb005be6 	bl	28cd0 <__getcwd>
   11d34:	e2504000 	subs	r4, r0, #0
   11d38:	0a000058 	beq	11ea0 <__dcigettext+0x2ec>
   11d3c:	e1a03007 	mov	r3, r7
   11d40:	e1a02004 	mov	r2, r4
   11d44:	e59f1578 	ldr	r1, [pc, #1400]	; 122c4 <__dcigettext+0x710>
   11d48:	e24b0050 	sub	r0, fp, #80	; 0x50
   11d4c:	eb001451 	bl	16e98 <___asprintf>
   11d50:	e1a06000 	mov	r6, r0
   11d54:	e1a00004 	mov	r0, r4
   11d58:	eb004a8f 	bl	2479c <__free>
   11d5c:	e3560000 	cmp	r6, #0
   11d60:	ba0000f3 	blt	12134 <__dcigettext+0x580>
   11d64:	e51b7050 	ldr	r7, [fp, #-80]	; 0xffffffb0
   11d68:	e59b1008 	ldr	r1, [fp, #8]
   11d6c:	e59f2554 	ldr	r2, [pc, #1364]	; 122c8 <__dcigettext+0x714>
   11d70:	e59f3554 	ldr	r3, [pc, #1364]	; 122cc <__dcigettext+0x718>
   11d74:	e7d26001 	ldrb	r6, [r2, r1]
   11d78:	e1a00001 	mov	r0, r1
   11d7c:	e0866003 	add	r6, r6, r3
   11d80:	eb009528 	bl	37228 <__current_locale_name>
   11d84:	e59f1544 	ldr	r1, [pc, #1348]	; 122d0 <__dcigettext+0x71c>
   11d88:	e1a04000 	mov	r4, r0
   11d8c:	eb004f95 	bl	25be8 <strcmp>
   11d90:	e3500000 	cmp	r0, #0
   11d94:	1a0000de 	bne	12114 <__dcigettext+0x560>
   11d98:	e1a00008 	mov	r0, r8
   11d9c:	eb00500b 	bl	25dd0 <strlen>
   11da0:	e50b0070 	str	r0, [fp, #-112]	; 0xffffff90
   11da4:	e1a00006 	mov	r0, r6
   11da8:	eb005008 	bl	25dd0 <strlen>
   11dac:	e51b3070 	ldr	r3, [fp, #-112]	; 0xffffff90
   11db0:	e0800003 	add	r0, r0, r3
   11db4:	e2800013 	add	r0, r0, #19
   11db8:	e3c00007 	bic	r0, r0, #7
   11dbc:	e04dd000 	sub	sp, sp, r0
   11dc0:	e28d1008 	add	r1, sp, #8
   11dc4:	e1a00001 	mov	r0, r1
   11dc8:	e50b1058 	str	r1, [fp, #-88]	; 0xffffffa8
   11dcc:	e1a01006 	mov	r1, r6
   11dd0:	eb0054de 	bl	27150 <__stpcpy>
   11dd4:	e3a02002 	mov	r2, #2
   11dd8:	e59f14f4 	ldr	r1, [pc, #1268]	; 122d4 <__dcigettext+0x720>
   11ddc:	eb0054f7 	bl	271c0 <memcpy>
   11de0:	e51b2070 	ldr	r2, [fp, #-112]	; 0xffffff90
   11de4:	e1a01008 	mov	r1, r8
   11de8:	e2800001 	add	r0, r0, #1
   11dec:	eb0054d2 	bl	2713c <__mempcpy>
   11df0:	e3a02004 	mov	r2, #4
   11df4:	e59f14dc 	ldr	r1, [pc, #1244]	; 122d8 <__dcigettext+0x724>
   11df8:	eb0054f0 	bl	271c0 <memcpy>
   11dfc:	e1a00004 	mov	r0, r4
   11e00:	eb004ff2 	bl	25dd0 <strlen>
   11e04:	e280000f 	add	r0, r0, #15
   11e08:	e3c00007 	bic	r0, r0, #7
   11e0c:	e04dd000 	sub	sp, sp, r0
   11e10:	e28d6008 	add	r6, sp, #8
   11e14:	e5d43000 	ldrb	r3, [r4]
   11e18:	e353003a 	cmp	r3, #58	; 0x3a
   11e1c:	0a00004d 	beq	11f58 <__dcigettext+0x3a4>
   11e20:	e3530000 	cmp	r3, #0
   11e24:	1a00004d 	bne	11f60 <__dcigettext+0x3ac>
   11e28:	e3a03043 	mov	r3, #67	; 0x43
   11e2c:	e1c630b0 	strh	r3, [r6]
   11e30:	e59f1498 	ldr	r1, [pc, #1176]	; 122d0 <__dcigettext+0x71c>
   11e34:	e1a00006 	mov	r0, r6
   11e38:	eb004f6a 	bl	25be8 <strcmp>
   11e3c:	e3500000 	cmp	r0, #0
   11e40:	0a000016 	beq	11ea0 <__dcigettext+0x2ec>
   11e44:	e59f1490 	ldr	r1, [pc, #1168]	; 122dc <__dcigettext+0x728>
   11e48:	e1a00006 	mov	r0, r6
   11e4c:	eb004f65 	bl	25be8 <strcmp>
   11e50:	e3500000 	cmp	r0, #0
   11e54:	0a000011 	beq	11ea0 <__dcigettext+0x2ec>
   11e58:	e1a03005 	mov	r3, r5
   11e5c:	e51b2058 	ldr	r2, [fp, #-88]	; 0xffffffa8
   11e60:	e1a01006 	mov	r1, r6
   11e64:	e1a00007 	mov	r0, r7
   11e68:	eb000124 	bl	12300 <_nl_find_domain>
   11e6c:	e2503000 	subs	r3, r0, #0
   11e70:	e50b305c 	str	r3, [fp, #-92]	; 0xffffffa4
   11e74:	0affffe6 	beq	11e14 <__dcigettext+0x260>
   11e78:	e24b304c 	sub	r3, fp, #76	; 0x4c
   11e7c:	e58d3000 	str	r3, [sp]
   11e80:	e1a02009 	mov	r2, r9
   11e84:	e3a03001 	mov	r3, #1
   11e88:	e1a01005 	mov	r1, r5
   11e8c:	ebfffc56 	bl	10fec <_nl_find_msg>
   11e90:	e2503000 	subs	r3, r0, #0
   11e94:	0a00004b 	beq	11fc8 <__dcigettext+0x414>
   11e98:	e3730001 	cmn	r3, #1
   11e9c:	1a000066 	bne	1203c <__dcigettext+0x488>
   11ea0:	e51b0050 	ldr	r0, [fp, #-80]	; 0xffffffb0
   11ea4:	eb004a3c 	bl	2479c <__free>
   11ea8:	e59f3408 	ldr	r3, [pc, #1032]	; 122b8 <__dcigettext+0x704>
   11eac:	e3530000 	cmp	r3, #0
   11eb0:	0a000003 	beq	11ec4 <__dcigettext+0x310>
   11eb4:	e59f03ec 	ldr	r0, [pc, #1004]	; 122a8 <__dcigettext+0x6f4>
   11eb8:	e1a00000 	nop			; (mov r0, r0)
   11ebc:	e59f03e0 	ldr	r0, [pc, #992]	; 122a4 <__dcigettext+0x6f0>
   11ec0:	e1a00000 	nop			; (mov r0, r0)
   11ec4:	e59b3004 	ldr	r3, [fp, #4]
   11ec8:	e51b2060 	ldr	r2, [fp, #-96]	; 0xffffffa0
   11ecc:	ebfffb1b 	bl	10b40 <__aeabi_read_tp>
   11ed0:	e3520000 	cmp	r2, #0
   11ed4:	13530001 	cmpne	r3, #1
   11ed8:	e59f3400 	ldr	r3, [pc, #1024]	; 122e0 <__dcigettext+0x72c>
   11edc:	e51b206c 	ldr	r2, [fp, #-108]	; 0xffffff94
   11ee0:	e79f3003 	ldr	r3, [pc, r3]
   11ee4:	e7802003 	str	r2, [r0, r3]
   11ee8:	0affff4a 	beq	11c18 <__dcigettext+0x64>
   11eec:	e51b3064 	ldr	r3, [fp, #-100]	; 0xffffff9c
   11ef0:	eaffff49 	b	11c1c <__dcigettext+0x68>
   11ef4:	e3580000 	cmp	r8, #0
   11ef8:	0a000008 	beq	11f20 <__dcigettext+0x36c>
   11efc:	e59b0008 	ldr	r0, [fp, #8]
   11f00:	e50b5038 	str	r5, [fp, #-56]	; 0xffffffc8
   11f04:	e50b902c 	str	r9, [fp, #-44]	; 0xffffffd4
   11f08:	e50b8048 	str	r8, [fp, #-72]	; 0xffffffb8
   11f0c:	e50b0044 	str	r0, [fp, #-68]	; 0xffffffbc
   11f10:	eb0094c4 	bl	37228 <__current_locale_name>
   11f14:	e50b0074 	str	r0, [fp, #-116]	; 0xffffff8c
   11f18:	e50b0040 	str	r0, [fp, #-64]	; 0xffffffc0
   11f1c:	eaffff5e 	b	11c9c <__dcigettext+0xe8>
   11f20:	e3a03000 	mov	r3, #0
   11f24:	e59f23b8 	ldr	r2, [pc, #952]	; 122e4 <__dcigettext+0x730>
   11f28:	e59b0008 	ldr	r0, [fp, #8]
   11f2c:	e5928000 	ldr	r8, [r2]
   11f30:	e50b902c 	str	r9, [fp, #-44]	; 0xffffffd4
   11f34:	e50b0044 	str	r0, [fp, #-68]	; 0xffffffbc
   11f38:	e50b8048 	str	r8, [fp, #-72]	; 0xffffffb8
   11f3c:	e50b3038 	str	r3, [fp, #-56]	; 0xffffffc8
   11f40:	eb0094b8 	bl	37228 <__current_locale_name>
   11f44:	e3550000 	cmp	r5, #0
   11f48:	e50b0074 	str	r0, [fp, #-116]	; 0xffffff8c
   11f4c:	e50b0040 	str	r0, [fp, #-64]	; 0xffffffc0
   11f50:	1affff4f 	bne	11c94 <__dcigettext+0xe0>
   11f54:	eaffff50 	b	11c9c <__dcigettext+0xe8>
   11f58:	e2844001 	add	r4, r4, #1
   11f5c:	eaffffac 	b	11e14 <__dcigettext+0x260>
   11f60:	e1a00006 	mov	r0, r6
   11f64:	e2841001 	add	r1, r4, #1
   11f68:	e4c03001 	strb	r3, [r0], #1
   11f6c:	e5d13000 	ldrb	r3, [r1]
   11f70:	e1a04001 	mov	r4, r1
   11f74:	e253203a 	subs	r2, r3, #58	; 0x3a
   11f78:	13a02001 	movne	r2, #1
   11f7c:	e3530000 	cmp	r3, #0
   11f80:	03a02000 	moveq	r2, #0
   11f84:	e3520000 	cmp	r2, #0
   11f88:	e2811001 	add	r1, r1, #1
   11f8c:	1afffff5 	bne	11f68 <__dcigettext+0x3b4>
   11f90:	e59f3350 	ldr	r3, [pc, #848]	; 122e8 <__dcigettext+0x734>
   11f94:	e5c02000 	strb	r2, [r0]
   11f98:	e5933000 	ldr	r3, [r3]
   11f9c:	e3530000 	cmp	r3, #0
   11fa0:	0affffa2 	beq	11e30 <__dcigettext+0x27c>
   11fa4:	e3a0102f 	mov	r1, #47	; 0x2f
   11fa8:	e1a00006 	mov	r0, r6
   11fac:	eb004ec2 	bl	25abc <strchr>
   11fb0:	e3500000 	cmp	r0, #0
   11fb4:	1affff96 	bne	11e14 <__dcigettext+0x260>
   11fb8:	eaffff9c 	b	11e30 <__dcigettext+0x27c>
   11fbc:	e3a05000 	mov	r5, #0
   11fc0:	e59f7324 	ldr	r7, [pc, #804]	; 122ec <__dcigettext+0x738>
   11fc4:	eaffff67 	b	11d68 <__dcigettext+0x1b4>
   11fc8:	e51b205c 	ldr	r2, [fp, #-92]	; 0xffffffa4
   11fcc:	e5920010 	ldr	r0, [r2, #16]
   11fd0:	e3500000 	cmp	r0, #0
   11fd4:	0affff8e 	beq	11e14 <__dcigettext+0x260>
   11fd8:	e2822010 	add	r2, r2, #16
   11fdc:	e50b4078 	str	r4, [fp, #-120]	; 0xffffff88
   11fe0:	e50b707c 	str	r7, [fp, #-124]	; 0xffffff84
   11fe4:	e1a04002 	mov	r4, r2
   11fe8:	e1a07003 	mov	r7, r3
   11fec:	ea000003 	b	12000 <__dcigettext+0x44c>
   11ff0:	e5b40004 	ldr	r0, [r4, #4]!
   11ff4:	e2877001 	add	r7, r7, #1
   11ff8:	e3500000 	cmp	r0, #0
   11ffc:	0a000056 	beq	1215c <__dcigettext+0x5a8>
   12000:	e24b304c 	sub	r3, fp, #76	; 0x4c
   12004:	e58d3000 	str	r3, [sp]
   12008:	e1a02009 	mov	r2, r9
   1200c:	e3a03001 	mov	r3, #1
   12010:	e1a01005 	mov	r1, r5
   12014:	ebfffbf4 	bl	10fec <_nl_find_msg>
   12018:	e3700001 	cmn	r0, #1
   1201c:	0affff9f 	beq	11ea0 <__dcigettext+0x2ec>
   12020:	e3500000 	cmp	r0, #0
   12024:	0afffff1 	beq	11ff0 <__dcigettext+0x43c>
   12028:	e1a03000 	mov	r3, r0
   1202c:	e51b105c 	ldr	r1, [fp, #-92]	; 0xffffffa4
   12030:	e2872004 	add	r2, r7, #4
   12034:	e7912102 	ldr	r2, [r1, r2, lsl #2]
   12038:	e50b205c 	str	r2, [fp, #-92]	; 0xffffffa4
   1203c:	e51b0050 	ldr	r0, [fp, #-80]	; 0xffffffb0
   12040:	e50b3058 	str	r3, [fp, #-88]	; 0xffffffa8
   12044:	eb0049d4 	bl	2479c <__free>
   12048:	e51b3068 	ldr	r3, [fp, #-104]	; 0xffffff98
   1204c:	e3530000 	cmp	r3, #0
   12050:	e51b3058 	ldr	r3, [fp, #-88]	; 0xffffffa8
   12054:	0a00004b 	beq	12188 <__dcigettext+0x5d4>
   12058:	e59f125c 	ldr	r1, [pc, #604]	; 122bc <__dcigettext+0x708>
   1205c:	e51b2068 	ldr	r2, [fp, #-104]	; 0xffffff98
   12060:	e5910000 	ldr	r0, [r1]
   12064:	e5922000 	ldr	r2, [r2]
   12068:	e51b104c 	ldr	r1, [fp, #-76]	; 0xffffffb4
   1206c:	e51bc05c 	ldr	ip, [fp, #-92]	; 0xffffffa4
   12070:	e5823014 	str	r3, [r2, #20]
   12074:	e582c010 	str	ip, [r2, #16]
   12078:	e582000c 	str	r0, [r2, #12]
   1207c:	e5821018 	str	r1, [r2, #24]
   12080:	ebfffaae 	bl	10b40 <__aeabi_read_tp>
   12084:	e51b1060 	ldr	r1, [fp, #-96]	; 0xffffffa0
   12088:	e59f2260 	ldr	r2, [pc, #608]	; 122f0 <__dcigettext+0x73c>
   1208c:	e3510000 	cmp	r1, #0
   12090:	e79f2002 	ldr	r2, [pc, r2]
   12094:	e51b106c 	ldr	r1, [fp, #-108]	; 0xffffff94
   12098:	e7801002 	str	r1, [r0, r2]
   1209c:	1a000031 	bne	12168 <__dcigettext+0x5b4>
   120a0:	e59f2210 	ldr	r2, [pc, #528]	; 122b8 <__dcigettext+0x704>
   120a4:	e3520000 	cmp	r2, #0
   120a8:	0afffedb 	beq	11c1c <__dcigettext+0x68>
   120ac:	e59f01f4 	ldr	r0, [pc, #500]	; 122a8 <__dcigettext+0x6f4>
   120b0:	e50b3058 	str	r3, [fp, #-88]	; 0xffffffa8
   120b4:	e1a00000 	nop			; (mov r0, r0)
   120b8:	e59f01e4 	ldr	r0, [pc, #484]	; 122a4 <__dcigettext+0x6f0>
   120bc:	e1a00000 	nop			; (mov r0, r0)
   120c0:	e51b3058 	ldr	r3, [fp, #-88]	; 0xffffffa8
   120c4:	eafffed4 	b	11c1c <__dcigettext+0x68>
   120c8:	e51b3060 	ldr	r3, [fp, #-96]	; 0xffffffa0
   120cc:	e3530000 	cmp	r3, #0
   120d0:	e5913014 	ldr	r3, [r1, #20]
   120d4:	1a000018 	bne	1213c <__dcigettext+0x588>
   120d8:	e59f21d8 	ldr	r2, [pc, #472]	; 122b8 <__dcigettext+0x704>
   120dc:	e3520000 	cmp	r2, #0
   120e0:	0a000005 	beq	120fc <__dcigettext+0x548>
   120e4:	e59f01bc 	ldr	r0, [pc, #444]	; 122a8 <__dcigettext+0x6f4>
   120e8:	e50b3058 	str	r3, [fp, #-88]	; 0xffffffa8
   120ec:	e1a00000 	nop			; (mov r0, r0)
   120f0:	e59f01ac 	ldr	r0, [pc, #428]	; 122a4 <__dcigettext+0x6f0>
   120f4:	e1a00000 	nop			; (mov r0, r0)
   120f8:	e51b3058 	ldr	r3, [fp, #-88]	; 0xffffffa8
   120fc:	ebfffa8f 	bl	10b40 <__aeabi_read_tp>
   12100:	e59f21ec 	ldr	r2, [pc, #492]	; 122f4 <__dcigettext+0x740>
   12104:	e51b106c 	ldr	r1, [fp, #-108]	; 0xffffff94
   12108:	e79f2002 	ldr	r2, [pc, r2]
   1210c:	e7801002 	str	r1, [r0, r2]
   12110:	eafffec1 	b	11c1c <__dcigettext+0x68>
   12114:	e59f01dc 	ldr	r0, [pc, #476]	; 122f8 <__dcigettext+0x744>
   12118:	eb000fb1 	bl	15fe4 <getenv>
   1211c:	e3500000 	cmp	r0, #0
   12120:	0affff1c 	beq	11d98 <__dcigettext+0x1e4>
   12124:	e5d03000 	ldrb	r3, [r0]
   12128:	e3530000 	cmp	r3, #0
   1212c:	11a04000 	movne	r4, r0
   12130:	eaffff18 	b	11d98 <__dcigettext+0x1e4>
   12134:	e3a03000 	mov	r3, #0
   12138:	eafffeb7 	b	11c1c <__dcigettext+0x68>
   1213c:	e5910010 	ldr	r0, [r1, #16]
   12140:	e1a02003 	mov	r2, r3
   12144:	e5900008 	ldr	r0, [r0, #8]
   12148:	e5913018 	ldr	r3, [r1, #24]
   1214c:	e59b1004 	ldr	r1, [fp, #4]
   12150:	ebfffb8e 	bl	10f90 <plural_lookup.isra.2>
   12154:	e1a03000 	mov	r3, r0
   12158:	eaffffde 	b	120d8 <__dcigettext+0x524>
   1215c:	e51b4078 	ldr	r4, [fp, #-120]	; 0xffffff88
   12160:	e51b707c 	ldr	r7, [fp, #-124]	; 0xffffff84
   12164:	eaffff2a 	b	11e14 <__dcigettext+0x260>
   12168:	e1a02003 	mov	r2, r3
   1216c:	e51b305c 	ldr	r3, [fp, #-92]	; 0xffffffa4
   12170:	e59b1004 	ldr	r1, [fp, #4]
   12174:	e5930008 	ldr	r0, [r3, #8]
   12178:	e51b304c 	ldr	r3, [fp, #-76]	; 0xffffffb4
   1217c:	ebfffb83 	bl	10f90 <plural_lookup.isra.2>
   12180:	e1a03000 	mov	r3, r0
   12184:	eaffffc5 	b	120a0 <__dcigettext+0x4ec>
   12188:	e1a00009 	mov	r0, r9
   1218c:	eb004f0f 	bl	25dd0 <strlen>
   12190:	e2805001 	add	r5, r0, #1
   12194:	e51b0074 	ldr	r0, [fp, #-116]	; 0xffffff8c
   12198:	eb004f0c 	bl	25dd0 <strlen>
   1219c:	e51b7070 	ldr	r7, [fp, #-112]	; 0xffffff90
   121a0:	e287201e 	add	r2, r7, #30
   121a4:	e0820000 	add	r0, r2, r0
   121a8:	e0800005 	add	r0, r0, r5
   121ac:	eb0047be 	bl	240ac <__libc_malloc>
   121b0:	e2504000 	subs	r4, r0, #0
   121b4:	e51b3058 	ldr	r3, [fp, #-88]	; 0xffffffa8
   121b8:	0affffb0 	beq	12080 <__dcigettext+0x4cc>
   121bc:	e1a02005 	mov	r2, r5
   121c0:	e1a01009 	mov	r1, r9
   121c4:	e284001c 	add	r0, r4, #28
   121c8:	eb0053db 	bl	2713c <__mempcpy>
   121cc:	e1a06000 	mov	r6, r0
   121d0:	e2872001 	add	r2, r7, #1
   121d4:	e0805002 	add	r5, r0, r2
   121d8:	e1a01008 	mov	r1, r8
   121dc:	eb0053f7 	bl	271c0 <memcpy>
   121e0:	e51b1074 	ldr	r1, [fp, #-116]	; 0xffffff8c
   121e4:	e1a00005 	mov	r0, r5
   121e8:	eb004e88 	bl	25c10 <strcpy>
   121ec:	e59b3008 	ldr	r3, [fp, #8]
   121f0:	e59f20c4 	ldr	r2, [pc, #196]	; 122bc <__dcigettext+0x708>
   121f4:	e5843004 	str	r3, [r4, #4]
   121f8:	e51b305c 	ldr	r3, [fp, #-92]	; 0xffffffa4
   121fc:	e59f00f8 	ldr	r0, [pc, #248]	; 122fc <__dcigettext+0x748>
   12200:	e5921000 	ldr	r1, [r2]
   12204:	e5843010 	str	r3, [r4, #16]
   12208:	e51b204c 	ldr	r2, [fp, #-76]	; 0xffffffb4
   1220c:	e51b3058 	ldr	r3, [fp, #-88]	; 0xffffffa8
   12210:	e3500000 	cmp	r0, #0
   12214:	e5845008 	str	r5, [r4, #8]
   12218:	e5846000 	str	r6, [r4]
   1221c:	e5843014 	str	r3, [r4, #20]
   12220:	e584100c 	str	r1, [r4, #12]
   12224:	e5842018 	str	r2, [r4, #24]
   12228:	0a000002 	beq	12238 <__dcigettext+0x684>
   1222c:	e59f0078 	ldr	r0, [pc, #120]	; 122ac <__dcigettext+0x6f8>
   12230:	e1a00000 	nop			; (mov r0, r0)
   12234:	e51b3058 	ldr	r3, [fp, #-88]	; 0xffffffa8
   12238:	e59f2070 	ldr	r2, [pc, #112]	; 122b0 <__dcigettext+0x6fc>
   1223c:	e59f1070 	ldr	r1, [pc, #112]	; 122b4 <__dcigettext+0x700>
   12240:	e1a00004 	mov	r0, r4
   12244:	e50b3058 	str	r3, [fp, #-88]	; 0xffffffa8
   12248:	eb005dfa 	bl	29a38 <__tsearch>
   1224c:	e59f3064 	ldr	r3, [pc, #100]	; 122b8 <__dcigettext+0x704>
   12250:	e1a05000 	mov	r5, r0
   12254:	e3530000 	cmp	r3, #0
   12258:	e51b3058 	ldr	r3, [fp, #-88]	; 0xffffffa8
   1225c:	0a000002 	beq	1226c <__dcigettext+0x6b8>
   12260:	e59f0044 	ldr	r0, [pc, #68]	; 122ac <__dcigettext+0x6f8>
   12264:	e1a00000 	nop			; (mov r0, r0)
   12268:	e51b3058 	ldr	r3, [fp, #-88]	; 0xffffffa8
   1226c:	e3550000 	cmp	r5, #0
   12270:	0a000002 	beq	12280 <__dcigettext+0x6cc>
   12274:	e5952000 	ldr	r2, [r5]
   12278:	e1520004 	cmp	r2, r4
   1227c:	0affff7f 	beq	12080 <__dcigettext+0x4cc>
   12280:	e1a00004 	mov	r0, r4
   12284:	e50b3058 	str	r3, [fp, #-88]	; 0xffffffa8
   12288:	eb004943 	bl	2479c <__free>
   1228c:	e51b3058 	ldr	r3, [fp, #-88]	; 0xffffffa8
   12290:	eaffff7a 	b	12080 <__dcigettext+0x4cc>
   12294:	eb006203 	bl	2aaa8 <__stack_chk_fail>
   12298:	00085b98 	.word	0x00085b98
   1229c:	000743f8 	.word	0x000743f8
   122a0:	00000000 	.word	0x00000000
   122a4:	00087490 	.word	0x00087490
   122a8:	00087120 	.word	0x00087120
   122ac:	00087140 	.word	0x00087140
   122b0:	00010f24 	.word	0x00010f24
   122b4:	00087104 	.word	0x00087104
   122b8:	00000000 	.word	0x00000000
   122bc:	00087898 	.word	0x00087898
   122c0:	00087894 	.word	0x00087894
   122c4:	00060c68 	.word	0x00060c68
   122c8:	000638a4 	.word	0x000638a4
   122cc:	00063818 	.word	0x00063818
   122d0:	00060c70 	.word	0x00060c70
   122d4:	000630c0 	.word	0x000630c0
   122d8:	00060c80 	.word	0x00060c80
   122dc:	00060c84 	.word	0x00060c84
   122e0:	00074160 	.word	0x00074160
   122e4:	00086094 	.word	0x00086094
   122e8:	00085fd8 	.word	0x00085fd8
   122ec:	00060c8c 	.word	0x00060c8c
   122f0:	00073fb0 	.word	0x00073fb0
   122f4:	00073f38 	.word	0x00073f38
   122f8:	00060c74 	.word	0x00060c74
   122fc:	00000000 	.word	0x00000000

00012300 <_nl_find_domain>:
   12300:	e92d4ff0 	push	{r4, r5, r6, r7, r8, r9, sl, fp, lr}
   12304:	e59f6290 	ldr	r6, [pc, #656]	; 1259c <_nl_find_domain+0x29c>
   12308:	e59fe290 	ldr	lr, [pc, #656]	; 125a0 <_nl_find_domain+0x2a0>
   1230c:	e596c000 	ldr	ip, [r6]
   12310:	e24dd044 	sub	sp, sp, #68	; 0x44
   12314:	e35e0000 	cmp	lr, #0
   12318:	e1a05000 	mov	r5, r0
   1231c:	e1a07001 	mov	r7, r1
   12320:	e1a09002 	mov	r9, r2
   12324:	e1a0a003 	mov	sl, r3
   12328:	e58dc03c 	str	ip, [sp, #60]	; 0x3c
   1232c:	0a000001 	beq	12338 <_nl_find_domain+0x38>
   12330:	e59f026c 	ldr	r0, [pc, #620]	; 125a4 <_nl_find_domain+0x2a4>
   12334:	e1a00000 	nop			; (mov r0, r0)
   12338:	e1a00005 	mov	r0, r5
   1233c:	eb004ea3 	bl	25dd0 <strlen>
   12340:	e3a03000 	mov	r3, #0
   12344:	e2802001 	add	r2, r0, #1
   12348:	e58d9014 	str	r9, [sp, #20]
   1234c:	e58d7000 	str	r7, [sp]
   12350:	e58d3018 	str	r3, [sp, #24]
   12354:	e58d3010 	str	r3, [sp, #16]
   12358:	e58d300c 	str	r3, [sp, #12]
   1235c:	e58d3008 	str	r3, [sp, #8]
   12360:	e58d3004 	str	r3, [sp, #4]
   12364:	e1a01005 	mov	r1, r5
   12368:	e59f0238 	ldr	r0, [pc, #568]	; 125a8 <_nl_find_domain+0x2a8>
   1236c:	eb0007d2 	bl	142bc <_nl_make_l10nflist>
   12370:	e59f8234 	ldr	r8, [pc, #564]	; 125ac <_nl_find_domain+0x2ac>
   12374:	e1a04000 	mov	r4, r0
   12378:	e3580000 	cmp	r8, #0
   1237c:	0a000001 	beq	12388 <_nl_find_domain+0x88>
   12380:	e59f021c 	ldr	r0, [pc, #540]	; 125a4 <_nl_find_domain+0x2a4>
   12384:	e1a00000 	nop			; (mov r0, r0)
   12388:	e3540000 	cmp	r4, #0
   1238c:	0a000022 	beq	1241c <_nl_find_domain+0x11c>
   12390:	e5943004 	ldr	r3, [r4, #4]
   12394:	e3530000 	cmp	r3, #0
   12398:	da00001b 	ble	1240c <_nl_find_domain+0x10c>
   1239c:	e5943008 	ldr	r3, [r4, #8]
   123a0:	e3530000 	cmp	r3, #0
   123a4:	0a000006 	beq	123c4 <_nl_find_domain+0xc4>
   123a8:	e59d203c 	ldr	r2, [sp, #60]	; 0x3c
   123ac:	e5963000 	ldr	r3, [r6]
   123b0:	e1a00004 	mov	r0, r4
   123b4:	e1520003 	cmp	r2, r3
   123b8:	1a000076 	bne	12598 <_nl_find_domain+0x298>
   123bc:	e28dd044 	add	sp, sp, #68	; 0x44
   123c0:	e8bd8ff0 	pop	{r4, r5, r6, r7, r8, r9, sl, fp, pc}
   123c4:	e5940010 	ldr	r0, [r4, #16]
   123c8:	e3500000 	cmp	r0, #0
   123cc:	0afffff5 	beq	123a8 <_nl_find_domain+0xa8>
   123d0:	e2845010 	add	r5, r4, #16
   123d4:	ea000006 	b	123f4 <_nl_find_domain+0xf4>
   123d8:	e4953004 	ldr	r3, [r5], #4
   123dc:	e5933008 	ldr	r3, [r3, #8]
   123e0:	e3530000 	cmp	r3, #0
   123e4:	1affffef 	bne	123a8 <_nl_find_domain+0xa8>
   123e8:	e5950000 	ldr	r0, [r5]
   123ec:	e3500000 	cmp	r0, #0
   123f0:	0affffec 	beq	123a8 <_nl_find_domain+0xa8>
   123f4:	e5903004 	ldr	r3, [r0, #4]
   123f8:	e3530000 	cmp	r3, #0
   123fc:	cafffff5 	bgt	123d8 <_nl_find_domain+0xd8>
   12400:	e1a0100a 	mov	r1, sl
   12404:	eb00006a 	bl	125b4 <_nl_load_domain>
   12408:	eafffff2 	b	123d8 <_nl_find_domain+0xd8>
   1240c:	e1a0100a 	mov	r1, sl
   12410:	e1a00004 	mov	r0, r4
   12414:	eb000066 	bl	125b4 <_nl_load_domain>
   12418:	eaffffdf 	b	1239c <_nl_find_domain+0x9c>
   1241c:	e1a00007 	mov	r0, r7
   12420:	eb00072e 	bl	140e0 <_nl_expand_alias>
   12424:	e2503000 	subs	r3, r0, #0
   12428:	e58d3024 	str	r3, [sp, #36]	; 0x24
   1242c:	0a000008 	beq	12454 <_nl_find_domain+0x154>
   12430:	eb004e66 	bl	25dd0 <strlen>
   12434:	e280b001 	add	fp, r0, #1
   12438:	e1a0000b 	mov	r0, fp
   1243c:	eb00471a 	bl	240ac <__libc_malloc>
   12440:	e2507000 	subs	r7, r0, #0
   12444:	0affffd7 	beq	123a8 <_nl_find_domain+0xa8>
   12448:	e1a0200b 	mov	r2, fp
   1244c:	e59d1024 	ldr	r1, [sp, #36]	; 0x24
   12450:	eb00535a 	bl	271c0 <memcpy>
   12454:	e28d2038 	add	r2, sp, #56	; 0x38
   12458:	e28d3034 	add	r3, sp, #52	; 0x34
   1245c:	e58d2004 	str	r2, [sp, #4]
   12460:	e58d3000 	str	r3, [sp]
   12464:	e28d202c 	add	r2, sp, #44	; 0x2c
   12468:	e28d3030 	add	r3, sp, #48	; 0x30
   1246c:	e28d1028 	add	r1, sp, #40	; 0x28
   12470:	e1a00007 	mov	r0, r7
   12474:	eb000937 	bl	14958 <_nl_explode_name>
   12478:	e3700001 	cmn	r0, #1
   1247c:	e1a0b000 	mov	fp, r0
   12480:	0affffc8 	beq	123a8 <_nl_find_domain+0xa8>
   12484:	e59f3124 	ldr	r3, [pc, #292]	; 125b0 <_nl_find_domain+0x2b0>
   12488:	e3530000 	cmp	r3, #0
   1248c:	0a000001 	beq	12498 <_nl_find_domain+0x198>
   12490:	e59f010c 	ldr	r0, [pc, #268]	; 125a4 <_nl_find_domain+0x2a4>
   12494:	e1a00000 	nop			; (mov r0, r0)
   12498:	e1a00005 	mov	r0, r5
   1249c:	eb004e4b 	bl	25dd0 <strlen>
   124a0:	e3a0c001 	mov	ip, #1
   124a4:	e59d3038 	ldr	r3, [sp, #56]	; 0x38
   124a8:	e080200c 	add	r2, r0, ip
   124ac:	e59de02c 	ldr	lr, [sp, #44]	; 0x2c
   124b0:	e59d0030 	ldr	r0, [sp, #48]	; 0x30
   124b4:	e58dc018 	str	ip, [sp, #24]
   124b8:	e58d300c 	str	r3, [sp, #12]
   124bc:	e59dc034 	ldr	ip, [sp, #52]	; 0x34
   124c0:	e59d3028 	ldr	r3, [sp, #40]	; 0x28
   124c4:	e98d1001 	stmib	sp, {r0, ip}
   124c8:	e58d3000 	str	r3, [sp]
   124cc:	e58d9014 	str	r9, [sp, #20]
   124d0:	e1a01005 	mov	r1, r5
   124d4:	e58de010 	str	lr, [sp, #16]
   124d8:	e1a0300b 	mov	r3, fp
   124dc:	e59f00c4 	ldr	r0, [pc, #196]	; 125a8 <_nl_find_domain+0x2a8>
   124e0:	eb000775 	bl	142bc <_nl_make_l10nflist>
   124e4:	e3580000 	cmp	r8, #0
   124e8:	e1a04000 	mov	r4, r0
   124ec:	0a000001 	beq	124f8 <_nl_find_domain+0x1f8>
   124f0:	e59f00ac 	ldr	r0, [pc, #172]	; 125a4 <_nl_find_domain+0x2a4>
   124f4:	e1a00000 	nop			; (mov r0, r0)
   124f8:	e3540000 	cmp	r4, #0
   124fc:	0a00000a 	beq	1252c <_nl_find_domain+0x22c>
   12500:	e5943004 	ldr	r3, [r4, #4]
   12504:	e3530000 	cmp	r3, #0
   12508:	da00001e 	ble	12588 <_nl_find_domain+0x288>
   1250c:	e5943008 	ldr	r3, [r4, #8]
   12510:	e3530000 	cmp	r3, #0
   12514:	0a000009 	beq	12540 <_nl_find_domain+0x240>
   12518:	e59d3024 	ldr	r3, [sp, #36]	; 0x24
   1251c:	e3530000 	cmp	r3, #0
   12520:	0a000001 	beq	1252c <_nl_find_domain+0x22c>
   12524:	e1a00007 	mov	r0, r7
   12528:	eb00489b 	bl	2479c <__free>
   1252c:	e31b0001 	tst	fp, #1
   12530:	0affff9c 	beq	123a8 <_nl_find_domain+0xa8>
   12534:	e59d0038 	ldr	r0, [sp, #56]	; 0x38
   12538:	eb004897 	bl	2479c <__free>
   1253c:	eaffff99 	b	123a8 <_nl_find_domain+0xa8>
   12540:	e5940010 	ldr	r0, [r4, #16]
   12544:	e3500000 	cmp	r0, #0
   12548:	0afffff2 	beq	12518 <_nl_find_domain+0x218>
   1254c:	e2845010 	add	r5, r4, #16
   12550:	ea000006 	b	12570 <_nl_find_domain+0x270>
   12554:	e4953004 	ldr	r3, [r5], #4
   12558:	e5933008 	ldr	r3, [r3, #8]
   1255c:	e3530000 	cmp	r3, #0
   12560:	1affffec 	bne	12518 <_nl_find_domain+0x218>
   12564:	e5950000 	ldr	r0, [r5]
   12568:	e3500000 	cmp	r0, #0
   1256c:	0affffe9 	beq	12518 <_nl_find_domain+0x218>
   12570:	e5903004 	ldr	r3, [r0, #4]
   12574:	e3530000 	cmp	r3, #0
   12578:	cafffff5 	bgt	12554 <_nl_find_domain+0x254>
   1257c:	e1a0100a 	mov	r1, sl
   12580:	eb00000b 	bl	125b4 <_nl_load_domain>
   12584:	eafffff2 	b	12554 <_nl_find_domain+0x254>
   12588:	e1a0100a 	mov	r1, sl
   1258c:	e1a00004 	mov	r0, r4
   12590:	eb000007 	bl	125b4 <_nl_load_domain>
   12594:	eaffffdc 	b	1250c <_nl_find_domain+0x20c>
   12598:	eb006142 	bl	2aaa8 <__stack_chk_fail>
   1259c:	00085b98 	.word	0x00085b98
   125a0:	00000000 	.word	0x00000000
   125a4:	00087160 	.word	0x00087160
   125a8:	00087180 	.word	0x00087180
	...

000125b4 <_nl_load_domain>:
   125b4:	e92d4ff0 	push	{r4, r5, r6, r7, r8, r9, sl, fp, lr}
   125b8:	e1a09000 	mov	r9, r0
   125bc:	ebfff95f 	bl	10b40 <__aeabi_read_tp>
   125c0:	e59f5f80 	ldr	r5, [pc, #3968]	; 13548 <_nl_load_domain+0xf94>
   125c4:	e59fbf80 	ldr	fp, [pc, #3968]	; 1354c <_nl_load_domain+0xf98>
   125c8:	e5952008 	ldr	r2, [r5, #8]
   125cc:	e2406d13 	sub	r6, r0, #1216	; 0x4c0
   125d0:	e59b3000 	ldr	r3, [fp]
   125d4:	e24dd0e4 	sub	sp, sp, #228	; 0xe4
   125d8:	e1520006 	cmp	r2, r6
   125dc:	e1a08001 	mov	r8, r1
   125e0:	e58d30dc 	str	r3, [sp, #220]	; 0xdc
   125e4:	0a00000e 	beq	12624 <_nl_load_domain+0x70>
   125e8:	e3a01001 	mov	r1, #1
   125ec:	e1a02005 	mov	r2, r5
   125f0:	e3a04000 	mov	r4, #0
   125f4:	e5923000 	ldr	r3, [r2]
   125f8:	e1530004 	cmp	r3, r4
   125fc:	1a000005 	bne	12618 <_nl_load_domain+0x64>
   12600:	e1a00004 	mov	r0, r4
   12604:	e3e03a0f 	mvn	r3, #61440	; 0xf000
   12608:	e1a0e00f 	mov	lr, pc
   1260c:	e243f03f 	sub	pc, r3, #63	; 0x3f
   12610:	3afffff7 	bcc	125f4 <_nl_load_domain+0x40>
   12614:	e1a03004 	mov	r3, r4
   12618:	e1530004 	cmp	r3, r4
   1261c:	1a0000e3 	bne	129b0 <_nl_load_domain+0x3fc>
   12620:	e5856008 	str	r6, [r5, #8]
   12624:	e5953004 	ldr	r3, [r5, #4]
   12628:	e5991004 	ldr	r1, [r9, #4]
   1262c:	e2833001 	add	r3, r3, #1
   12630:	e3510000 	cmp	r1, #0
   12634:	e5853004 	str	r3, [r5, #4]
   12638:	1a00000c 	bne	12670 <_nl_load_domain+0xbc>
   1263c:	e3e02000 	mvn	r2, #0
   12640:	e5990000 	ldr	r0, [r9]
   12644:	e5891008 	str	r1, [r9, #8]
   12648:	e3500000 	cmp	r0, #0
   1264c:	e5892004 	str	r2, [r9, #4]
   12650:	0a000004 	beq	12668 <_nl_load_domain+0xb4>
   12654:	eb00580b 	bl	28688 <__open_nocancel>
   12658:	e3700001 	cmn	r0, #1
   1265c:	e1a04000 	mov	r4, r0
   12660:	1a00001f 	bne	126e4 <_nl_load_domain+0x130>
   12664:	e5953004 	ldr	r3, [r5, #4]
   12668:	e3a02001 	mov	r2, #1
   1266c:	e5892004 	str	r2, [r9, #4]
   12670:	e2433001 	sub	r3, r3, #1
   12674:	e3530000 	cmp	r3, #0
   12678:	e5853004 	str	r3, [r5, #4]
   1267c:	1a000012 	bne	126cc <_nl_load_domain+0x118>
   12680:	e59f7ec0 	ldr	r7, [pc, #3776]	; 13548 <_nl_load_domain+0xf94>
   12684:	e5853008 	str	r3, [r5, #8]
   12688:	e5956000 	ldr	r6, [r5]
   1268c:	e3a01000 	mov	r1, #0
   12690:	e1a04006 	mov	r4, r6
   12694:	e1a02007 	mov	r2, r7
   12698:	e5923000 	ldr	r3, [r2]
   1269c:	e1530004 	cmp	r3, r4
   126a0:	1a000005 	bne	126bc <_nl_load_domain+0x108>
   126a4:	e1a00004 	mov	r0, r4
   126a8:	e3e03a0f 	mvn	r3, #61440	; 0xf000
   126ac:	e1a0e00f 	mov	lr, pc
   126b0:	e243f03f 	sub	pc, r3, #63	; 0x3f
   126b4:	3afffff7 	bcc	12698 <_nl_load_domain+0xe4>
   126b8:	e1a03004 	mov	r3, r4
   126bc:	e1560003 	cmp	r6, r3
   126c0:	1afffff0 	bne	12688 <_nl_load_domain+0xd4>
   126c4:	e3560001 	cmp	r6, #1
   126c8:	ca0000a5 	bgt	12964 <_nl_load_domain+0x3b0>
   126cc:	e59d20dc 	ldr	r2, [sp, #220]	; 0xdc
   126d0:	e59b3000 	ldr	r3, [fp]
   126d4:	e1520003 	cmp	r2, r3
   126d8:	1a000216 	bne	12f38 <_nl_load_domain+0x984>
   126dc:	e28dd0e4 	add	sp, sp, #228	; 0xe4
   126e0:	e8bd8ff0 	pop	{r4, r5, r6, r7, r8, r9, sl, fp, pc}
   126e4:	e1a01000 	mov	r1, r0
   126e8:	e28d2068 	add	r2, sp, #104	; 0x68
   126ec:	e3a00003 	mov	r0, #3
   126f0:	eb005784 	bl	28508 <___fxstat64>
   126f4:	e2501000 	subs	r1, r0, #0
   126f8:	e58d1010 	str	r1, [sp, #16]
   126fc:	1a0000a7 	bne	129a0 <_nl_load_domain+0x3ec>
   12700:	e28d7098 	add	r7, sp, #152	; 0x98
   12704:	e89700c0 	ldm	r7, {r6, r7}
   12708:	e1510007 	cmp	r1, r7
   1270c:	01560006 	cmpeq	r6, r6
   12710:	e1a03001 	mov	r3, r1
   12714:	13a03001 	movne	r3, #1
   12718:	03a03000 	moveq	r3, #0
   1271c:	e356002f 	cmp	r6, #47	; 0x2f
   12720:	93833001 	orrls	r3, r3, #1
   12724:	e3530000 	cmp	r3, #0
   12728:	e58d6008 	str	r6, [sp, #8]
   1272c:	e58d700c 	str	r7, [sp, #12]
   12730:	1a00009a 	bne	129a0 <_nl_load_domain+0x3ec>
   12734:	e58d1004 	str	r1, [sp, #4]
   12738:	e58d4000 	str	r4, [sp]
   1273c:	e3a03002 	mov	r3, #2
   12740:	e3a02001 	mov	r2, #1
   12744:	e1a01006 	mov	r1, r6
   12748:	eb005bba 	bl	29638 <__mmap>
   1274c:	e3700001 	cmn	r0, #1
   12750:	e1a0a000 	mov	sl, r0
   12754:	0a0000f0 	beq	12b1c <_nl_load_domain+0x568>
   12758:	e1a00004 	mov	r0, r4
   1275c:	eb00594a 	bl	28c8c <__close_nocancel>
   12760:	e59a6000 	ldr	r6, [sl]
   12764:	e59f3de4 	ldr	r3, [pc, #3556]	; 13550 <_nl_load_domain+0xf9c>
   12768:	e59f2de4 	ldr	r2, [pc, #3556]	; 13554 <_nl_load_domain+0xfa0>
   1276c:	e0564003 	subs	r4, r6, r3
   12770:	13a04001 	movne	r4, #1
   12774:	e1560002 	cmp	r6, r2
   12778:	11560003 	cmpne	r6, r3
   1277c:	1a000144 	bne	12c94 <_nl_load_domain+0x6e0>
   12780:	e3a03001 	mov	r3, #1
   12784:	e58d3010 	str	r3, [sp, #16]
   12788:	e3a00068 	mov	r0, #104	; 0x68
   1278c:	eb004646 	bl	240ac <__libc_malloc>
   12790:	e2507000 	subs	r7, r0, #0
   12794:	0affffb2 	beq	12664 <_nl_load_domain+0xb0>
   12798:	e3a00000 	mov	r0, #0
   1279c:	e59f3dac 	ldr	r3, [pc, #3500]	; 13550 <_nl_load_domain+0xf9c>
   127a0:	e5897008 	str	r7, [r9, #8]
   127a4:	e1560003 	cmp	r6, r3
   127a8:	e59d3010 	ldr	r3, [sp, #16]
   127ac:	e587a000 	str	sl, [r7]
   127b0:	e5873004 	str	r3, [r7, #4]
   127b4:	e59d3008 	ldr	r3, [sp, #8]
   127b8:	e587400c 	str	r4, [r7, #12]
   127bc:	e5873008 	str	r3, [r7, #8]
   127c0:	e5870010 	str	r0, [r7, #16]
   127c4:	e59a3004 	ldr	r3, [sl, #4]
   127c8:	1a00007b 	bne	129bc <_nl_load_domain+0x408>
   127cc:	e3530802 	cmp	r3, #131072	; 0x20000
   127d0:	2a0000aa 	bcs	12a80 <_nl_load_domain+0x4cc>
   127d4:	e28a0008 	add	r0, sl, #8
   127d8:	e8901007 	ldm	r0, {r0, r1, r2, ip}
   127dc:	e08a1001 	add	r1, sl, r1
   127e0:	e08a2002 	add	r2, sl, r2
   127e4:	e35c0002 	cmp	ip, #2
   127e8:	e58dc014 	str	ip, [sp, #20]
   127ec:	e5871018 	str	r1, [r7, #24]
   127f0:	e5870014 	str	r0, [r7, #20]
   127f4:	e587201c 	str	r2, [r7, #28]
   127f8:	e587c02c 	str	ip, [r7, #44]	; 0x2c
   127fc:	9a000097 	bls	12a60 <_nl_load_domain+0x4ac>
   12800:	e59a2018 	ldr	r2, [sl, #24]
   12804:	e1a03803 	lsl	r3, r3, #16
   12808:	e1a03823 	lsr	r3, r3, #16
   1280c:	e08a2002 	add	r2, sl, r2
   12810:	e3530000 	cmp	r3, #0
   12814:	e5872030 	str	r2, [r7, #48]	; 0x30
   12818:	e5874034 	str	r4, [r7, #52]	; 0x34
   1281c:	0a0000a4 	beq	12ab4 <_nl_load_domain+0x500>
   12820:	e3520000 	cmp	r2, #0
   12824:	0a000094 	beq	12a7c <_nl_load_domain+0x4c8>
   12828:	e59f3d20 	ldr	r3, [pc, #3360]	; 13550 <_nl_load_domain+0xf9c>
   1282c:	e1560003 	cmp	r6, r3
   12830:	0a00010f 	beq	12c74 <_nl_load_domain+0x6c0>
   12834:	e59a2024 	ldr	r2, [sl, #36]	; 0x24
   12838:	e0223862 	eor	r3, r2, r2, ror #16
   1283c:	e1a03423 	lsr	r3, r3, #8
   12840:	e3c33cff 	bic	r3, r3, #65280	; 0xff00
   12844:	e0333462 	eors	r3, r3, r2, ror #8
   12848:	e58d3020 	str	r3, [sp, #32]
   1284c:	0a000098 	beq	12ab4 <_nl_load_domain+0x500>
   12850:	e59a201c 	ldr	r2, [sl, #28]
   12854:	e59a3020 	ldr	r3, [sl, #32]
   12858:	e0221862 	eor	r1, r2, r2, ror #16
   1285c:	e0234863 	eor	r4, r3, r3, ror #16
   12860:	e1a01421 	lsr	r1, r1, #8
   12864:	e1a04424 	lsr	r4, r4, #8
   12868:	e3c11cff 	bic	r1, r1, #65280	; 0xff00
   1286c:	e3c44cff 	bic	r4, r4, #65280	; 0xff00
   12870:	e0212462 	eor	r2, r1, r2, ror #8
   12874:	e58d201c 	str	r2, [sp, #28]
   12878:	e0244463 	eor	r4, r4, r3, ror #8
   1287c:	e3a01004 	mov	r1, #4
   12880:	e59d001c 	ldr	r0, [sp, #28]
   12884:	eb00492a 	bl	24d34 <__calloc>
   12888:	e2503000 	subs	r3, r0, #0
   1288c:	e58d3018 	str	r3, [sp, #24]
   12890:	0a000079 	beq	12a7c <_nl_load_domain+0x4c8>
   12894:	e59d301c 	ldr	r3, [sp, #28]
   12898:	e3530000 	cmp	r3, #0
   1289c:	0a000110 	beq	12ce4 <_nl_load_domain+0x730>
   128a0:	e59d2018 	ldr	r2, [sp, #24]
   128a4:	e08ac004 	add	ip, sl, r4
   128a8:	e58d9028 	str	r9, [sp, #40]	; 0x28
   128ac:	e1a0000c 	mov	r0, ip
   128b0:	e3a04000 	mov	r4, #0
   128b4:	e242e004 	sub	lr, r2, #4
   128b8:	e58d7024 	str	r7, [sp, #36]	; 0x24
   128bc:	e1a09003 	mov	r9, r3
   128c0:	e58d802c 	str	r8, [sp, #44]	; 0x2c
   128c4:	ea00001f 	b	12948 <_nl_load_domain+0x394>
   128c8:	e5907004 	ldr	r7, [r0, #4]
   128cc:	e79c1184 	ldr	r1, [ip, r4, lsl #3]
   128d0:	e0273867 	eor	r3, r7, r7, ror #16
   128d4:	e1a03423 	lsr	r3, r3, #8
   128d8:	e0212861 	eor	r2, r1, r1, ror #16
   128dc:	e3c33cff 	bic	r3, r3, #65280	; 0xff00
   128e0:	e1a02422 	lsr	r2, r2, #8
   128e4:	e0233467 	eor	r3, r3, r7, ror #8
   128e8:	e3c22cff 	bic	r2, r2, #65280	; 0xff00
   128ec:	e08a3003 	add	r3, sl, r3
   128f0:	e0222461 	eor	r2, r2, r1, ror #8
   128f4:	e3520000 	cmp	r2, #0
   128f8:	0a0000ea 	beq	12ca8 <_nl_load_domain+0x6f4>
   128fc:	e0832002 	add	r2, r3, r2
   12900:	e5522001 	ldrb	r2, [r2, #-1]
   12904:	e3520000 	cmp	r2, #0
   12908:	1a0000e6 	bne	12ca8 <_nl_load_domain+0x6f4>
   1290c:	e5d31000 	ldrb	r1, [r3]
   12910:	e3510050 	cmp	r1, #80	; 0x50
   12914:	0a0000a0 	beq	12b9c <_nl_load_domain+0x5e8>
   12918:	e3510049 	cmp	r1, #73	; 0x49
   1291c:	1a000004 	bne	12934 <_nl_load_domain+0x380>
   12920:	e5d33001 	ldrb	r3, [r3, #1]
   12924:	e3530000 	cmp	r3, #0
   12928:	e59f3c28 	ldr	r3, [pc, #3112]	; 13558 <_nl_load_domain+0xfa4>
   1292c:	13a02000 	movne	r2, #0
   12930:	01a02003 	moveq	r2, r3
   12934:	e2844001 	add	r4, r4, #1
   12938:	e1540009 	cmp	r4, r9
   1293c:	e5ae2004 	str	r2, [lr, #4]!
   12940:	e2800008 	add	r0, r0, #8
   12944:	0a0000e3 	beq	12cd8 <_nl_load_domain+0x724>
   12948:	e59f3c00 	ldr	r3, [pc, #3072]	; 13550 <_nl_load_domain+0xf9c>
   1294c:	e1560003 	cmp	r6, r3
   12950:	1affffdc 	bne	128c8 <_nl_load_domain+0x314>
   12954:	e5903004 	ldr	r3, [r0, #4]
   12958:	e79c2184 	ldr	r2, [ip, r4, lsl #3]
   1295c:	e08a3003 	add	r3, sl, r3
   12960:	eaffffe3 	b	128f4 <_nl_load_domain+0x340>
   12964:	e59f0bdc 	ldr	r0, [pc, #3036]	; 13548 <_nl_load_domain+0xf94>
   12968:	e3a01081 	mov	r1, #129	; 0x81
   1296c:	e3a02001 	mov	r2, #1
   12970:	e3a03000 	mov	r3, #0
   12974:	e3a070f0 	mov	r7, #240	; 0xf0
   12978:	ef000000 	svc	0x00000000
   1297c:	eaffff52 	b	126cc <_nl_load_domain+0x118>
   12980:	e3700001 	cmn	r0, #1
   12984:	1a000005 	bne	129a0 <_nl_load_domain+0x3ec>
   12988:	ebfff86c 	bl	10b40 <__aeabi_read_tp>
   1298c:	e59f3bc8 	ldr	r3, [pc, #3016]	; 1355c <_nl_load_domain+0xfa8>
   12990:	e79f3003 	ldr	r3, [pc, r3]
   12994:	e7903003 	ldr	r3, [r0, r3]
   12998:	e3530004 	cmp	r3, #4
   1299c:	0a000064 	beq	12b34 <_nl_load_domain+0x580>
   129a0:	e1a00004 	mov	r0, r4
   129a4:	eb0058b8 	bl	28c8c <__close_nocancel>
   129a8:	e5953004 	ldr	r3, [r5, #4]
   129ac:	eaffff2d 	b	12668 <_nl_load_domain+0xb4>
   129b0:	e1a00005 	mov	r0, r5
   129b4:	eb005fb8 	bl	2a89c <__lll_lock_wait_private>
   129b8:	eaffff18 	b	12620 <_nl_load_domain+0x6c>
   129bc:	e0232863 	eor	r2, r3, r3, ror #16
   129c0:	e1a02422 	lsr	r2, r2, #8
   129c4:	e3c22cff 	bic	r2, r2, #65280	; 0xff00
   129c8:	e0223463 	eor	r3, r2, r3, ror #8
   129cc:	e3530802 	cmp	r3, #131072	; 0x20000
   129d0:	2a00002a 	bcs	12a80 <_nl_load_domain+0x4cc>
   129d4:	e59a200c 	ldr	r2, [sl, #12]
   129d8:	e59ae010 	ldr	lr, [sl, #16]
   129dc:	e0221862 	eor	r1, r2, r2, ror #16
   129e0:	e1a01421 	lsr	r1, r1, #8
   129e4:	e3c11cff 	bic	r1, r1, #65280	; 0xff00
   129e8:	e0211462 	eor	r1, r1, r2, ror #8
   129ec:	e02e286e 	eor	r2, lr, lr, ror #16
   129f0:	e59ac014 	ldr	ip, [sl, #20]
   129f4:	e1a02422 	lsr	r2, r2, #8
   129f8:	e3c22cff 	bic	r2, r2, #65280	; 0xff00
   129fc:	e022246e 	eor	r2, r2, lr, ror #8
   12a00:	e02ce86c 	eor	lr, ip, ip, ror #16
   12a04:	e59a0008 	ldr	r0, [sl, #8]
   12a08:	e1a0e42e 	lsr	lr, lr, #8
   12a0c:	e3ceecff 	bic	lr, lr, #65280	; 0xff00
   12a10:	e02ee46c 	eor	lr, lr, ip, ror #8
   12a14:	e020c860 	eor	ip, r0, r0, ror #16
   12a18:	e1a0c42c 	lsr	ip, ip, #8
   12a1c:	e3ccccff 	bic	ip, ip, #65280	; 0xff00
   12a20:	e08a1001 	add	r1, sl, r1
   12a24:	e08a2002 	add	r2, sl, r2
   12a28:	e02c0460 	eor	r0, ip, r0, ror #8
   12a2c:	e35e0002 	cmp	lr, #2
   12a30:	e58de014 	str	lr, [sp, #20]
   12a34:	e5871018 	str	r1, [r7, #24]
   12a38:	e587201c 	str	r2, [r7, #28]
   12a3c:	e5870014 	str	r0, [r7, #20]
   12a40:	e587e02c 	str	lr, [r7, #44]	; 0x2c
   12a44:	9a000005 	bls	12a60 <_nl_load_domain+0x4ac>
   12a48:	e59a1018 	ldr	r1, [sl, #24]
   12a4c:	e0212861 	eor	r2, r1, r1, ror #16
   12a50:	e1a02422 	lsr	r2, r2, #8
   12a54:	e3c22cff 	bic	r2, r2, #65280	; 0xff00
   12a58:	e0222461 	eor	r2, r2, r1, ror #8
   12a5c:	eaffff68 	b	12804 <_nl_load_domain+0x250>
   12a60:	e3a02000 	mov	r2, #0
   12a64:	e1a03803 	lsl	r3, r3, #16
   12a68:	e1a03823 	lsr	r3, r3, #16
   12a6c:	e1530002 	cmp	r3, r2
   12a70:	e5874034 	str	r4, [r7, #52]	; 0x34
   12a74:	e5872030 	str	r2, [r7, #48]	; 0x30
   12a78:	0a00000d 	beq	12ab4 <_nl_load_domain+0x500>
   12a7c:	e5970010 	ldr	r0, [r7, #16]
   12a80:	eb004745 	bl	2479c <__free>
   12a84:	e59d3010 	ldr	r3, [sp, #16]
   12a88:	e3530000 	cmp	r3, #0
   12a8c:	0a00003f 	beq	12b90 <_nl_load_domain+0x5dc>
   12a90:	e59d1008 	ldr	r1, [sp, #8]
   12a94:	e1a0000a 	mov	r0, sl
   12a98:	eb005b2c 	bl	29750 <__munmap>
   12a9c:	e1a00007 	mov	r0, r7
   12aa0:	eb00473d 	bl	2479c <__free>
   12aa4:	e3a02000 	mov	r2, #0
   12aa8:	e5953004 	ldr	r3, [r5, #4]
   12aac:	e5892008 	str	r2, [r9, #8]
   12ab0:	eafffeec 	b	12668 <_nl_load_domain+0xb4>
   12ab4:	e3a03000 	mov	r3, #0
   12ab8:	e5873020 	str	r3, [r7, #32]
   12abc:	e5873024 	str	r3, [r7, #36]	; 0x24
   12ac0:	e5873028 	str	r3, [r7, #40]	; 0x28
   12ac4:	e3a01000 	mov	r1, #0
   12ac8:	e59f3a90 	ldr	r3, [pc, #2704]	; 13560 <_nl_load_domain+0xfac>
   12acc:	e5871038 	str	r1, [r7, #56]	; 0x38
   12ad0:	e1530001 	cmp	r3, r1
   12ad4:	e587103c 	str	r1, [r7, #60]	; 0x3c
   12ad8:	0a000001 	beq	12ae4 <_nl_load_domain+0x530>
   12adc:	e2870040 	add	r0, r7, #64	; 0x40
   12ae0:	e1a00000 	nop			; (mov r0, r0)
   12ae4:	e28d3064 	add	r3, sp, #100	; 0x64
   12ae8:	e58d3000 	str	r3, [sp]
   12aec:	e1a01008 	mov	r1, r8
   12af0:	e3a03000 	mov	r3, #0
   12af4:	e59f2a68 	ldr	r2, [pc, #2664]	; 13564 <_nl_load_domain+0xfb0>
   12af8:	e1a00009 	mov	r0, r9
   12afc:	ebfff93a 	bl	10fec <_nl_find_msg>
   12b00:	e3700001 	cmn	r0, #1
   12b04:	0a00006d 	beq	12cc0 <_nl_load_domain+0x70c>
   12b08:	e2872064 	add	r2, r7, #100	; 0x64
   12b0c:	e2871060 	add	r1, r7, #96	; 0x60
   12b10:	eb000aa7 	bl	155b4 <__gettext_extract_plural>
   12b14:	e5953004 	ldr	r3, [r5, #4]
   12b18:	eafffed2 	b	12668 <_nl_load_domain+0xb4>
   12b1c:	e59d0008 	ldr	r0, [sp, #8]
   12b20:	eb004561 	bl	240ac <__libc_malloc>
   12b24:	e250a000 	subs	sl, r0, #0
   12b28:	0affff9c 	beq	129a0 <_nl_load_domain+0x3ec>
   12b2c:	e1a0700a 	mov	r7, sl
   12b30:	e59d6008 	ldr	r6, [sp, #8]
   12b34:	e1a02006 	mov	r2, r6
   12b38:	e1a01007 	mov	r1, r7
   12b3c:	e1a00004 	mov	r0, r4
   12b40:	eb00572a 	bl	287f0 <__read_nocancel>
   12b44:	e3500000 	cmp	r0, #0
   12b48:	daffff8c 	ble	12980 <_nl_load_domain+0x3cc>
   12b4c:	e0566000 	subs	r6, r6, r0
   12b50:	e0877000 	add	r7, r7, r0
   12b54:	1afffff6 	bne	12b34 <_nl_load_domain+0x580>
   12b58:	e1a00004 	mov	r0, r4
   12b5c:	eb00584a 	bl	28c8c <__close_nocancel>
   12b60:	e59a6000 	ldr	r6, [sl]
   12b64:	e59f39e4 	ldr	r3, [pc, #2532]	; 13550 <_nl_load_domain+0xf9c>
   12b68:	e59f29e4 	ldr	r2, [pc, #2532]	; 13554 <_nl_load_domain+0xfa0>
   12b6c:	e0564003 	subs	r4, r6, r3
   12b70:	13a04001 	movne	r4, #1
   12b74:	e1560002 	cmp	r6, r2
   12b78:	11560003 	cmpne	r6, r3
   12b7c:	0affff01 	beq	12788 <_nl_load_domain+0x1d4>
   12b80:	e1a0000a 	mov	r0, sl
   12b84:	eb004704 	bl	2479c <__free>
   12b88:	e5953004 	ldr	r3, [r5, #4]
   12b8c:	eafffeb5 	b	12668 <_nl_load_domain+0xb4>
   12b90:	e1a0000a 	mov	r0, sl
   12b94:	eb004700 	bl	2479c <__free>
   12b98:	eaffffbf 	b	12a9c <_nl_load_domain+0x4e8>
   12b9c:	e5d31001 	ldrb	r1, [r3, #1]
   12ba0:	e3510052 	cmp	r1, #82	; 0x52
   12ba4:	1affff62 	bne	12934 <_nl_load_domain+0x380>
   12ba8:	e5d31002 	ldrb	r1, [r3, #2]
   12bac:	e3510049 	cmp	r1, #73	; 0x49
   12bb0:	1affff5f 	bne	12934 <_nl_load_domain+0x380>
   12bb4:	e5d31003 	ldrb	r1, [r3, #3]
   12bb8:	e3510069 	cmp	r1, #105	; 0x69
   12bbc:	13510064 	cmpne	r1, #100	; 0x64
   12bc0:	03a08001 	moveq	r8, #1
   12bc4:	13a08000 	movne	r8, #0
   12bc8:	e3510075 	cmp	r1, #117	; 0x75
   12bcc:	1351006f 	cmpne	r1, #111	; 0x6f
   12bd0:	03a07001 	moveq	r7, #1
   12bd4:	13a07000 	movne	r7, #0
   12bd8:	e58d8030 	str	r8, [sp, #48]	; 0x30
   12bdc:	e1888007 	orr	r8, r8, r7
   12be0:	e20170df 	and	r7, r1, #223	; 0xdf
   12be4:	e3570058 	cmp	r7, #88	; 0x58
   12be8:	03888001 	orreq	r8, r8, #1
   12bec:	e3580000 	cmp	r8, #0
   12bf0:	0a00022a 	beq	134a0 <_nl_load_domain+0xeec>
   12bf4:	e5d38004 	ldrb	r8, [r3, #4]
   12bf8:	e3580038 	cmp	r8, #56	; 0x38
   12bfc:	0a0000ce 	beq	12f3c <_nl_load_domain+0x988>
   12c00:	e3580031 	cmp	r8, #49	; 0x31
   12c04:	0a0000e1 	beq	12f90 <_nl_load_domain+0x9dc>
   12c08:	e3580033 	cmp	r8, #51	; 0x33
   12c0c:	1a000208 	bne	13434 <_nl_load_domain+0xe80>
   12c10:	e5d32005 	ldrb	r2, [r3, #5]
   12c14:	e3520032 	cmp	r2, #50	; 0x32
   12c18:	13a02000 	movne	r2, #0
   12c1c:	1affff44 	bne	12934 <_nl_load_domain+0x380>
   12c20:	e5d33006 	ldrb	r3, [r3, #6]
   12c24:	e3530000 	cmp	r3, #0
   12c28:	1a000220 	bne	134b0 <_nl_load_domain+0xefc>
   12c2c:	e3510064 	cmp	r1, #100	; 0x64
   12c30:	0a000232 	beq	13500 <_nl_load_domain+0xf4c>
   12c34:	e3510069 	cmp	r1, #105	; 0x69
   12c38:	13510064 	cmpne	r1, #100	; 0x64
   12c3c:	03a03001 	moveq	r3, #1
   12c40:	13a03000 	movne	r3, #0
   12c44:	e3530000 	cmp	r3, #0
   12c48:	1a00021e 	bne	134c8 <_nl_load_domain+0xf14>
   12c4c:	e351006f 	cmp	r1, #111	; 0x6f
   12c50:	0a00021a 	beq	134c0 <_nl_load_domain+0xf0c>
   12c54:	e3510075 	cmp	r1, #117	; 0x75
   12c58:	0a000232 	beq	13528 <_nl_load_domain+0xf74>
   12c5c:	e3510078 	cmp	r1, #120	; 0x78
   12c60:	0a00022e 	beq	13520 <_nl_load_domain+0xf6c>
   12c64:	e3510058 	cmp	r1, #88	; 0x58
   12c68:	1a0003eb 	bne	13c1c <_nl_load_domain+0x1668>
   12c6c:	e59f2904 	ldr	r2, [pc, #2308]	; 13578 <_nl_load_domain+0xfc4>
   12c70:	eaffff2f 	b	12934 <_nl_load_domain+0x380>
   12c74:	e59a3024 	ldr	r3, [sl, #36]	; 0x24
   12c78:	e3530000 	cmp	r3, #0
   12c7c:	e58d3020 	str	r3, [sp, #32]
   12c80:	0affff8b 	beq	12ab4 <_nl_load_domain+0x500>
   12c84:	e59a301c 	ldr	r3, [sl, #28]
   12c88:	e59a4020 	ldr	r4, [sl, #32]
   12c8c:	e58d301c 	str	r3, [sp, #28]
   12c90:	eafffef9 	b	1287c <_nl_load_domain+0x2c8>
   12c94:	e59d1008 	ldr	r1, [sp, #8]
   12c98:	e1a0000a 	mov	r0, sl
   12c9c:	eb005aab 	bl	29750 <__munmap>
   12ca0:	e5953004 	ldr	r3, [r5, #4]
   12ca4:	eafffe6f 	b	12668 <_nl_load_domain+0xb4>
   12ca8:	e59d7024 	ldr	r7, [sp, #36]	; 0x24
   12cac:	e59d0018 	ldr	r0, [sp, #24]
   12cb0:	e59d9028 	ldr	r9, [sp, #40]	; 0x28
   12cb4:	eb0046b8 	bl	2479c <__free>
   12cb8:	e5970010 	ldr	r0, [r7, #16]
   12cbc:	eaffff6f 	b	12a80 <_nl_load_domain+0x4cc>
   12cc0:	e59f38a0 	ldr	r3, [pc, #2208]	; 13568 <_nl_load_domain+0xfb4>
   12cc4:	e3530000 	cmp	r3, #0
   12cc8:	0affff6b 	beq	12a7c <_nl_load_domain+0x4c8>
   12ccc:	e2870040 	add	r0, r7, #64	; 0x40
   12cd0:	e1a00000 	nop			; (mov r0, r0)
   12cd4:	eaffff68 	b	12a7c <_nl_load_domain+0x4c8>
   12cd8:	e59d7024 	ldr	r7, [sp, #36]	; 0x24
   12cdc:	e59d9028 	ldr	r9, [sp, #40]	; 0x28
   12ce0:	e59d802c 	ldr	r8, [sp, #44]	; 0x2c
   12ce4:	e59f3864 	ldr	r3, [pc, #2148]	; 13550 <_nl_load_domain+0xf9c>
   12ce8:	e1560003 	cmp	r6, r3
   12cec:	0a00008c 	beq	12f24 <_nl_load_domain+0x970>
   12cf0:	e59a0028 	ldr	r0, [sl, #40]	; 0x28
   12cf4:	e59a102c 	ldr	r1, [sl, #44]	; 0x2c
   12cf8:	e0202860 	eor	r2, r0, r0, ror #16
   12cfc:	e1a02422 	lsr	r2, r2, #8
   12d00:	e0213861 	eor	r3, r1, r1, ror #16
   12d04:	e3c22cff 	bic	r2, r2, #65280	; 0xff00
   12d08:	e1a03423 	lsr	r3, r3, #8
   12d0c:	e0222460 	eor	r2, r2, r0, ror #8
   12d10:	e3c33cff 	bic	r3, r3, #65280	; 0xff00
   12d14:	e08a2002 	add	r2, sl, r2
   12d18:	e58d2030 	str	r2, [sp, #48]	; 0x30
   12d1c:	e0233461 	eor	r3, r3, r1, ror #8
   12d20:	e3a02000 	mov	r2, #0
   12d24:	e58d7034 	str	r7, [sp, #52]	; 0x34
   12d28:	e1a07002 	mov	r7, r2
   12d2c:	e59d1014 	ldr	r1, [sp, #20]
   12d30:	e08a3003 	add	r3, sl, r3
   12d34:	e1a01101 	lsl	r1, r1, #2
   12d38:	e58d8040 	str	r8, [sp, #64]	; 0x40
   12d3c:	e59d801c 	ldr	r8, [sp, #28]
   12d40:	e58d103c 	str	r1, [sp, #60]	; 0x3c
   12d44:	e58d3024 	str	r3, [sp, #36]	; 0x24
   12d48:	e58d102c 	str	r1, [sp, #44]	; 0x2c
   12d4c:	e58d2014 	str	r2, [sp, #20]
   12d50:	e58da028 	str	sl, [sp, #40]	; 0x28
   12d54:	e58d9038 	str	r9, [sp, #56]	; 0x38
   12d58:	e3a04000 	mov	r4, #0
   12d5c:	e1a0a006 	mov	sl, r6
   12d60:	e59f37e8 	ldr	r3, [pc, #2024]	; 13550 <_nl_load_domain+0xf9c>
   12d64:	e15a0003 	cmp	sl, r3
   12d68:	0a000033 	beq	12e3c <_nl_load_domain+0x888>
   12d6c:	e3540000 	cmp	r4, #0
   12d70:	059d3030 	ldreq	r3, [sp, #48]	; 0x30
   12d74:	159d3024 	ldrne	r3, [sp, #36]	; 0x24
   12d78:	e7936107 	ldr	r6, [r3, r7, lsl #2]
   12d7c:	e0263866 	eor	r3, r6, r6, ror #16
   12d80:	e1a03423 	lsr	r3, r3, #8
   12d84:	e3c33cff 	bic	r3, r3, #65280	; 0xff00
   12d88:	e0236466 	eor	r6, r3, r6, ror #8
   12d8c:	e59d3028 	ldr	r3, [sp, #40]	; 0x28
   12d90:	e0836006 	add	r6, r3, r6
   12d94:	e5969008 	ldr	r9, [r6, #8]
   12d98:	e0293869 	eor	r3, r9, r9, ror #16
   12d9c:	e1a03423 	lsr	r3, r3, #8
   12da0:	e3c33cff 	bic	r3, r3, #65280	; 0xff00
   12da4:	e0239469 	eor	r9, r3, r9, ror #8
   12da8:	e2999001 	adds	r9, r9, #1
   12dac:	13a09001 	movne	r9, #1
   12db0:	e3590000 	cmp	r9, #0
   12db4:	1a00002c 	bne	12e6c <_nl_load_domain+0x8b8>
   12db8:	e28d30d4 	add	r3, sp, #212	; 0xd4
   12dbc:	e3540001 	cmp	r4, #1
   12dc0:	e7839104 	str	r9, [r3, r4, lsl #2]
   12dc4:	1a000026 	bne	12e64 <_nl_load_domain+0x8b0>
   12dc8:	e1a0600a 	mov	r6, sl
   12dcc:	e59d20d8 	ldr	r2, [sp, #216]	; 0xd8
   12dd0:	e59d30d4 	ldr	r3, [sp, #212]	; 0xd4
   12dd4:	e59d1014 	ldr	r1, [sp, #20]
   12dd8:	e0833002 	add	r3, r3, r2
   12ddc:	e59d202c 	ldr	r2, [sp, #44]	; 0x2c
   12de0:	e2811001 	add	r1, r1, #1
   12de4:	e0823003 	add	r3, r2, r3
   12de8:	e58d1014 	str	r1, [sp, #20]
   12dec:	e58d302c 	str	r3, [sp, #44]	; 0x2c
   12df0:	e59d3020 	ldr	r3, [sp, #32]
   12df4:	e2877001 	add	r7, r7, #1
   12df8:	e1570003 	cmp	r7, r3
   12dfc:	1affffd5 	bne	12d58 <_nl_load_domain+0x7a4>
   12e00:	e59d3014 	ldr	r3, [sp, #20]
   12e04:	e58d704c 	str	r7, [sp, #76]	; 0x4c
   12e08:	e3530000 	cmp	r3, #0
   12e0c:	e59da028 	ldr	sl, [sp, #40]	; 0x28
   12e10:	e59d7034 	ldr	r7, [sp, #52]	; 0x34
   12e14:	e59d9038 	ldr	r9, [sp, #56]	; 0x38
   12e18:	e59d8040 	ldr	r8, [sp, #64]	; 0x40
   12e1c:	1a000073 	bne	12ff0 <_nl_load_domain+0xa3c>
   12e20:	e59d3014 	ldr	r3, [sp, #20]
   12e24:	e5873020 	str	r3, [r7, #32]
   12e28:	e5873024 	str	r3, [r7, #36]	; 0x24
   12e2c:	e5873028 	str	r3, [r7, #40]	; 0x28
   12e30:	e59d0018 	ldr	r0, [sp, #24]
   12e34:	eb004658 	bl	2479c <__free>
   12e38:	eaffff21 	b	12ac4 <_nl_load_domain+0x510>
   12e3c:	e3540000 	cmp	r4, #0
   12e40:	059d3030 	ldreq	r3, [sp, #48]	; 0x30
   12e44:	159d3024 	ldrne	r3, [sp, #36]	; 0x24
   12e48:	e7936107 	ldr	r6, [r3, r7, lsl #2]
   12e4c:	e59d3028 	ldr	r3, [sp, #40]	; 0x28
   12e50:	e0836006 	add	r6, r3, r6
   12e54:	e5969008 	ldr	r9, [r6, #8]
   12e58:	e2999001 	adds	r9, r9, #1
   12e5c:	13a09001 	movne	r9, #1
   12e60:	eaffffd2 	b	12db0 <_nl_load_domain+0x7fc>
   12e64:	e3a04001 	mov	r4, #1
   12e68:	eaffffbc 	b	12d60 <_nl_load_domain+0x7ac>
   12e6c:	e3a09000 	mov	r9, #0
   12e70:	e286600c 	add	r6, r6, #12
   12e74:	e1a00009 	mov	r0, r9
   12e78:	e58d401c 	str	r4, [sp, #28]
   12e7c:	e1a09006 	mov	r9, r6
   12e80:	e59d4018 	ldr	r4, [sp, #24]
   12e84:	ea000013 	b	12ed8 <_nl_load_domain+0x924>
   12e88:	e0223862 	eor	r3, r2, r2, ror #16
   12e8c:	e5191004 	ldr	r1, [r9, #-4]
   12e90:	e1a03423 	lsr	r3, r3, #8
   12e94:	e3c33cff 	bic	r3, r3, #65280	; 0xff00
   12e98:	e0232462 	eor	r2, r3, r2, ror #8
   12e9c:	e0213861 	eor	r3, r1, r1, ror #16
   12ea0:	e1a03423 	lsr	r3, r3, #8
   12ea4:	e3c33cff 	bic	r3, r3, #65280	; 0xff00
   12ea8:	e0806002 	add	r6, r0, r2
   12eac:	e0233461 	eor	r3, r3, r1, ror #8
   12eb0:	e3730001 	cmn	r3, #1
   12eb4:	0a000015 	beq	12f10 <_nl_load_domain+0x95c>
   12eb8:	e1530008 	cmp	r3, r8
   12ebc:	2a00000c 	bcs	12ef4 <_nl_load_domain+0x940>
   12ec0:	e7940103 	ldr	r0, [r4, r3, lsl #2]
   12ec4:	e2899008 	add	r9, r9, #8
   12ec8:	e3500000 	cmp	r0, #0
   12ecc:	0a000012 	beq	12f1c <_nl_load_domain+0x968>
   12ed0:	eb004bbe 	bl	25dd0 <strlen>
   12ed4:	e0800006 	add	r0, r0, r6
   12ed8:	e59f3670 	ldr	r3, [pc, #1648]	; 13550 <_nl_load_domain+0xf9c>
   12edc:	e5192008 	ldr	r2, [r9, #-8]
   12ee0:	e15a0003 	cmp	sl, r3
   12ee4:	1affffe7 	bne	12e88 <_nl_load_domain+0x8d4>
   12ee8:	e5193004 	ldr	r3, [r9, #-4]
   12eec:	e0806002 	add	r6, r0, r2
   12ef0:	eaffffee 	b	12eb0 <_nl_load_domain+0x8fc>
   12ef4:	e59d7034 	ldr	r7, [sp, #52]	; 0x34
   12ef8:	e59d0018 	ldr	r0, [sp, #24]
   12efc:	e59da028 	ldr	sl, [sp, #40]	; 0x28
   12f00:	e59d9038 	ldr	r9, [sp, #56]	; 0x38
   12f04:	eb004624 	bl	2479c <__free>
   12f08:	e5970010 	ldr	r0, [r7, #16]
   12f0c:	eafffedb 	b	12a80 <_nl_load_domain+0x4cc>
   12f10:	e1a09006 	mov	r9, r6
   12f14:	e59d401c 	ldr	r4, [sp, #28]
   12f18:	eaffffa6 	b	12db8 <_nl_load_domain+0x804>
   12f1c:	e1a0600a 	mov	r6, sl
   12f20:	eaffffb2 	b	12df0 <_nl_load_domain+0x83c>
   12f24:	e59a2028 	ldr	r2, [sl, #40]	; 0x28
   12f28:	e59a302c 	ldr	r3, [sl, #44]	; 0x2c
   12f2c:	e08a2002 	add	r2, sl, r2
   12f30:	e58d2030 	str	r2, [sp, #48]	; 0x30
   12f34:	eaffff79 	b	12d20 <_nl_load_domain+0x76c>
   12f38:	eb005eda 	bl	2aaa8 <__stack_chk_fail>
   12f3c:	e5d33005 	ldrb	r3, [r3, #5]
   12f40:	e3530000 	cmp	r3, #0
   12f44:	1afffe7a 	bne	12934 <_nl_load_domain+0x380>
   12f48:	e3510064 	cmp	r1, #100	; 0x64
   12f4c:	0a000136 	beq	1342c <_nl_load_domain+0xe78>
   12f50:	e3510069 	cmp	r1, #105	; 0x69
   12f54:	13510064 	cmpne	r1, #100	; 0x64
   12f58:	03a03001 	moveq	r3, #1
   12f5c:	13a03000 	movne	r3, #0
   12f60:	e3530000 	cmp	r3, #0
   12f64:	1a00015f 	bne	134e8 <_nl_load_domain+0xf34>
   12f68:	e351006f 	cmp	r1, #111	; 0x6f
   12f6c:	0a000161 	beq	134f8 <_nl_load_domain+0xf44>
   12f70:	e3510075 	cmp	r1, #117	; 0x75
   12f74:	0a00015d 	beq	134f0 <_nl_load_domain+0xf3c>
   12f78:	e3510078 	cmp	r1, #120	; 0x78
   12f7c:	0a00016f 	beq	13540 <_nl_load_domain+0xf8c>
   12f80:	e3510058 	cmp	r1, #88	; 0x58
   12f84:	1a000324 	bne	13c1c <_nl_load_domain+0x1668>
   12f88:	e59f25e8 	ldr	r2, [pc, #1512]	; 13578 <_nl_load_domain+0xfc4>
   12f8c:	eafffe68 	b	12934 <_nl_load_domain+0x380>
   12f90:	e5d38005 	ldrb	r8, [r3, #5]
   12f94:	e3580036 	cmp	r8, #54	; 0x36
   12f98:	1afffe65 	bne	12934 <_nl_load_domain+0x380>
   12f9c:	e5d33006 	ldrb	r3, [r3, #6]
   12fa0:	e3530000 	cmp	r3, #0
   12fa4:	1a000143 	bne	134b8 <_nl_load_domain+0xf04>
   12fa8:	e3510064 	cmp	r1, #100	; 0x64
   12fac:	0a000155 	beq	13508 <_nl_load_domain+0xf54>
   12fb0:	e3510069 	cmp	r1, #105	; 0x69
   12fb4:	13510064 	cmpne	r1, #100	; 0x64
   12fb8:	03a03001 	moveq	r3, #1
   12fbc:	13a03000 	movne	r3, #0
   12fc0:	e3530000 	cmp	r3, #0
   12fc4:	1a000153 	bne	13518 <_nl_load_domain+0xf64>
   12fc8:	e351006f 	cmp	r1, #111	; 0x6f
   12fcc:	0a00014f 	beq	13510 <_nl_load_domain+0xf5c>
   12fd0:	e3510075 	cmp	r1, #117	; 0x75
   12fd4:	0a000157 	beq	13538 <_nl_load_domain+0xf84>
   12fd8:	e3510078 	cmp	r1, #120	; 0x78
   12fdc:	0a000153 	beq	13530 <_nl_load_domain+0xf7c>
   12fe0:	e3510058 	cmp	r1, #88	; 0x58
   12fe4:	1a00030c 	bne	13c1c <_nl_load_domain+0x1668>
   12fe8:	e59f2588 	ldr	r2, [pc, #1416]	; 13578 <_nl_load_domain+0xfc4>
   12fec:	eafffe50 	b	12934 <_nl_load_domain+0x380>
   12ff0:	e59d202c 	ldr	r2, [sp, #44]	; 0x2c
   12ff4:	e0820203 	add	r0, r2, r3, lsl #4
   12ff8:	eb00442b 	bl	240ac <__libc_malloc>
   12ffc:	e2503000 	subs	r3, r0, #0
   13000:	e58d3020 	str	r3, [sp, #32]
   13004:	0afffe9c 	beq	12a7c <_nl_load_domain+0x4c8>
   13008:	e3a06000 	mov	r6, #0
   1300c:	e59d3020 	ldr	r3, [sp, #32]
   13010:	e59d1014 	ldr	r1, [sp, #20]
   13014:	e59d003c 	ldr	r0, [sp, #60]	; 0x3c
   13018:	e0832201 	add	r2, r3, r1, lsl #4
   1301c:	e58d2028 	str	r2, [sp, #40]	; 0x28
   13020:	e5873010 	str	r3, [r7, #16]
   13024:	e0822000 	add	r2, r2, r0
   13028:	e0833181 	add	r3, r3, r1, lsl #3
   1302c:	e58d601c 	str	r6, [sp, #28]
   13030:	e58d203c 	str	r2, [sp, #60]	; 0x3c
   13034:	e58d3040 	str	r3, [sp, #64]	; 0x40
   13038:	e58d7038 	str	r7, [sp, #56]	; 0x38
   1303c:	e58d9050 	str	r9, [sp, #80]	; 0x50
   13040:	e58d8054 	str	r8, [sp, #84]	; 0x54
   13044:	ea00004b 	b	13178 <_nl_load_domain+0xbc4>
   13048:	e3500000 	cmp	r0, #0
   1304c:	079e4106 	ldreq	r4, [lr, r6, lsl #2]
   13050:	179c4106 	ldrne	r4, [ip, r6, lsl #2]
   13054:	e0243864 	eor	r3, r4, r4, ror #16
   13058:	e1a03423 	lsr	r3, r3, #8
   1305c:	e3c33cff 	bic	r3, r3, #65280	; 0xff00
   13060:	e0233464 	eor	r3, r3, r4, ror #8
   13064:	e08a4003 	add	r4, sl, r3
   13068:	e5947008 	ldr	r7, [r4, #8]
   1306c:	e0273867 	eor	r3, r7, r7, ror #16
   13070:	e1a03423 	lsr	r3, r3, #8
   13074:	e3c33cff 	bic	r3, r3, #65280	; 0xff00
   13078:	e0233467 	eor	r3, r3, r7, ror #8
   1307c:	e2933001 	adds	r3, r3, #1
   13080:	13a03001 	movne	r3, #1
   13084:	e3530000 	cmp	r3, #0
   13088:	1a00004d 	bne	131c4 <_nl_load_domain+0xc10>
   1308c:	e3500001 	cmp	r0, #1
   13090:	1a000049 	bne	131bc <_nl_load_domain+0xc08>
   13094:	e59d301c 	ldr	r3, [sp, #28]
   13098:	e59d2020 	ldr	r2, [sp, #32]
   1309c:	e1a03183 	lsl	r3, r3, #3
   130a0:	e0822003 	add	r2, r2, r3
   130a4:	e58d2044 	str	r2, [sp, #68]	; 0x44
   130a8:	e59d2040 	ldr	r2, [sp, #64]	; 0x40
   130ac:	e0823003 	add	r3, r2, r3
   130b0:	e58d3048 	str	r3, [sp, #72]	; 0x48
   130b4:	e3a03000 	mov	r3, #0
   130b8:	e58d302c 	str	r3, [sp, #44]	; 0x2c
   130bc:	e1a03006 	mov	r3, r6
   130c0:	e59d2034 	ldr	r2, [sp, #52]	; 0x34
   130c4:	e3520000 	cmp	r2, #0
   130c8:	e59d202c 	ldr	r2, [sp, #44]	; 0x2c
   130cc:	0a00004b 	beq	13200 <_nl_load_domain+0xc4c>
   130d0:	e3520000 	cmp	r2, #0
   130d4:	059d2030 	ldreq	r2, [sp, #48]	; 0x30
   130d8:	159d2024 	ldrne	r2, [sp, #36]	; 0x24
   130dc:	07924103 	ldreq	r4, [r2, r3, lsl #2]
   130e0:	17924103 	ldrne	r4, [r2, r3, lsl #2]
   130e4:	059d8044 	ldreq	r8, [sp, #68]	; 0x44
   130e8:	e0242864 	eor	r2, r4, r4, ror #16
   130ec:	e1a02422 	lsr	r2, r2, #8
   130f0:	e3c22cff 	bic	r2, r2, #65280	; 0xff00
   130f4:	e0224464 	eor	r4, r2, r4, ror #8
   130f8:	e79a7004 	ldr	r7, [sl, r4]
   130fc:	e08a4004 	add	r4, sl, r4
   13100:	e0272867 	eor	r2, r7, r7, ror #16
   13104:	e1a02422 	lsr	r2, r2, #8
   13108:	e5940008 	ldr	r0, [r4, #8]
   1310c:	e3c22cff 	bic	r2, r2, #65280	; 0xff00
   13110:	e0222467 	eor	r2, r2, r7, ror #8
   13114:	e08a7002 	add	r7, sl, r2
   13118:	e0202860 	eor	r2, r0, r0, ror #16
   1311c:	e1a02422 	lsr	r2, r2, #8
   13120:	e3c22cff 	bic	r2, r2, #65280	; 0xff00
   13124:	e0222460 	eor	r2, r2, r0, ror #8
   13128:	159d8048 	ldrne	r8, [sp, #72]	; 0x48
   1312c:	e3720001 	cmn	r2, #1
   13130:	e5941004 	ldr	r1, [r4, #4]
   13134:	1a00003f 	bne	13238 <_nl_load_domain+0xc84>
   13138:	e0212861 	eor	r2, r1, r1, ror #16
   1313c:	e1a02422 	lsr	r2, r2, #8
   13140:	e3c22cff 	bic	r2, r2, #65280	; 0xff00
   13144:	e0222461 	eor	r2, r2, r1, ror #8
   13148:	e8880084 	stm	r8, {r2, r7}
   1314c:	e59d202c 	ldr	r2, [sp, #44]	; 0x2c
   13150:	e3520001 	cmp	r2, #1
   13154:	1a0000dd 	bne	134d0 <_nl_load_domain+0xf1c>
   13158:	e1a06003 	mov	r6, r3
   1315c:	e59d301c 	ldr	r3, [sp, #28]
   13160:	e2833001 	add	r3, r3, #1
   13164:	e58d301c 	str	r3, [sp, #28]
   13168:	e59d304c 	ldr	r3, [sp, #76]	; 0x4c
   1316c:	e2866001 	add	r6, r6, #1
   13170:	e1560003 	cmp	r6, r3
   13174:	0a00005f 	beq	132f8 <_nl_load_domain+0xd44>
   13178:	e3a00000 	mov	r0, #0
   1317c:	e59d3038 	ldr	r3, [sp, #56]	; 0x38
   13180:	e59d1018 	ldr	r1, [sp, #24]
   13184:	e593200c 	ldr	r2, [r3, #12]
   13188:	e59dc024 	ldr	ip, [sp, #36]	; 0x24
   1318c:	e59de030 	ldr	lr, [sp, #48]	; 0x30
   13190:	e58d2034 	str	r2, [sp, #52]	; 0x34
   13194:	e3520000 	cmp	r2, #0
   13198:	1affffaa 	bne	13048 <_nl_load_domain+0xa94>
   1319c:	e3500000 	cmp	r0, #0
   131a0:	079e4106 	ldreq	r4, [lr, r6, lsl #2]
   131a4:	179c4106 	ldrne	r4, [ip, r6, lsl #2]
   131a8:	e08a4004 	add	r4, sl, r4
   131ac:	e5943008 	ldr	r3, [r4, #8]
   131b0:	e2933001 	adds	r3, r3, #1
   131b4:	13a03001 	movne	r3, #1
   131b8:	eaffffb1 	b	13084 <_nl_load_domain+0xad0>
   131bc:	e3a00001 	mov	r0, #1
   131c0:	eafffff3 	b	13194 <_nl_load_domain+0xbe0>
   131c4:	e2844004 	add	r4, r4, #4
   131c8:	ea000003 	b	131dc <_nl_load_domain+0xc28>
   131cc:	e7913103 	ldr	r3, [r1, r3, lsl #2]
   131d0:	e3530000 	cmp	r3, #0
   131d4:	0affffe3 	beq	13168 <_nl_load_domain+0xbb4>
   131d8:	e2844008 	add	r4, r4, #8
   131dc:	e5943004 	ldr	r3, [r4, #4]
   131e0:	e3520000 	cmp	r2, #0
   131e4:	10237863 	eorne	r7, r3, r3, ror #16
   131e8:	11a07427 	lsrne	r7, r7, #8
   131ec:	13c77cff 	bicne	r7, r7, #65280	; 0xff00
   131f0:	10273463 	eorne	r3, r7, r3, ror #8
   131f4:	e3730001 	cmn	r3, #1
   131f8:	1afffff3 	bne	131cc <_nl_load_domain+0xc18>
   131fc:	eaffffa2 	b	1308c <_nl_load_domain+0xad8>
   13200:	e3520000 	cmp	r2, #0
   13204:	059d2030 	ldreq	r2, [sp, #48]	; 0x30
   13208:	159d2024 	ldrne	r2, [sp, #36]	; 0x24
   1320c:	07924103 	ldreq	r4, [r2, r3, lsl #2]
   13210:	17924103 	ldrne	r4, [r2, r3, lsl #2]
   13214:	059d8044 	ldreq	r8, [sp, #68]	; 0x44
   13218:	e79a7004 	ldr	r7, [sl, r4]
   1321c:	e08a4004 	add	r4, sl, r4
   13220:	e5941008 	ldr	r1, [r4, #8]
   13224:	159d8048 	ldrne	r8, [sp, #72]	; 0x48
   13228:	e3710001 	cmn	r1, #1
   1322c:	e08a7007 	add	r7, sl, r7
   13230:	e5942004 	ldr	r2, [r4, #4]
   13234:	0affffc3 	beq	13148 <_nl_load_domain+0xb94>
   13238:	e59d203c 	ldr	r2, [sp, #60]	; 0x3c
   1323c:	e58d805c 	str	r8, [sp, #92]	; 0x5c
   13240:	e5882004 	str	r2, [r8, #4]
   13244:	e284400c 	add	r4, r4, #12
   13248:	e1a08007 	mov	r8, r7
   1324c:	e58d3058 	str	r3, [sp, #88]	; 0x58
   13250:	e1a07002 	mov	r7, r2
   13254:	ea000009 	b	13280 <_nl_load_domain+0xccc>
   13258:	e59d3018 	ldr	r3, [sp, #24]
   1325c:	e7939109 	ldr	r9, [r3, r9, lsl #2]
   13260:	e1a00009 	mov	r0, r9
   13264:	eb004ad9 	bl	25dd0 <strlen>
   13268:	e1a01009 	mov	r1, r9
   1326c:	e1a06000 	mov	r6, r0
   13270:	e1a02000 	mov	r2, r0
   13274:	e1a00007 	mov	r0, r7
   13278:	eb004fd0 	bl	271c0 <memcpy>
   1327c:	e0877006 	add	r7, r7, r6
   13280:	e59d3034 	ldr	r3, [sp, #52]	; 0x34
   13284:	e9140240 	ldmdb	r4, {r6, r9}
   13288:	e3530000 	cmp	r3, #0
   1328c:	0a000007 	beq	132b0 <_nl_load_domain+0xcfc>
   13290:	e0261866 	eor	r1, r6, r6, ror #16
   13294:	e0292869 	eor	r2, r9, r9, ror #16
   13298:	e1a01421 	lsr	r1, r1, #8
   1329c:	e1a02422 	lsr	r2, r2, #8
   132a0:	e3c11cff 	bic	r1, r1, #65280	; 0xff00
   132a4:	e3c22cff 	bic	r2, r2, #65280	; 0xff00
   132a8:	e0216466 	eor	r6, r1, r6, ror #8
   132ac:	e0229469 	eor	r9, r2, r9, ror #8
   132b0:	e3560000 	cmp	r6, #0
   132b4:	0a000005 	beq	132d0 <_nl_load_domain+0xd1c>
   132b8:	e1a01008 	mov	r1, r8
   132bc:	e1a00007 	mov	r0, r7
   132c0:	e1a02006 	mov	r2, r6
   132c4:	eb004fbd 	bl	271c0 <memcpy>
   132c8:	e0888006 	add	r8, r8, r6
   132cc:	e0877006 	add	r7, r7, r6
   132d0:	e3790001 	cmn	r9, #1
   132d4:	e2844008 	add	r4, r4, #8
   132d8:	1affffde 	bne	13258 <_nl_load_domain+0xca4>
   132dc:	e59d805c 	ldr	r8, [sp, #92]	; 0x5c
   132e0:	e58d703c 	str	r7, [sp, #60]	; 0x3c
   132e4:	e5982004 	ldr	r2, [r8, #4]
   132e8:	e59d3058 	ldr	r3, [sp, #88]	; 0x58
   132ec:	e0472002 	sub	r2, r7, r2
   132f0:	e5882000 	str	r2, [r8]
   132f4:	eaffff94 	b	1314c <_nl_load_domain+0xb98>
   132f8:	e59d3014 	ldr	r3, [sp, #20]
   132fc:	e59d201c 	ldr	r2, [sp, #28]
   13300:	e59d7038 	ldr	r7, [sp, #56]	; 0x38
   13304:	e1530002 	cmp	r3, r2
   13308:	e59d9050 	ldr	r9, [sp, #80]	; 0x50
   1330c:	e59d8054 	ldr	r8, [sp, #84]	; 0x54
   13310:	1a000241 	bne	13c1c <_nl_load_domain+0x1668>
   13314:	e59d3028 	ldr	r3, [sp, #40]	; 0x28
   13318:	e597002c 	ldr	r0, [r7, #44]	; 0x2c
   1331c:	e1a01003 	mov	r1, r3
   13320:	e0830100 	add	r0, r3, r0, lsl #2
   13324:	ea00000a 	b	13354 <_nl_load_domain+0xda0>
   13328:	e5973034 	ldr	r3, [r7, #52]	; 0x34
   1332c:	e5972030 	ldr	r2, [r7, #48]	; 0x30
   13330:	e3530000 	cmp	r3, #0
   13334:	e59d3028 	ldr	r3, [sp, #40]	; 0x28
   13338:	e0413003 	sub	r3, r1, r3
   1333c:	e7923003 	ldr	r3, [r2, r3]
   13340:	10232863 	eorne	r2, r3, r3, ror #16
   13344:	11a02422 	lsrne	r2, r2, #8
   13348:	13c22cff 	bicne	r2, r2, #65280	; 0xff00
   1334c:	10223463 	eorne	r3, r2, r3, ror #8
   13350:	e4813004 	str	r3, [r1], #4
   13354:	e1500001 	cmp	r0, r1
   13358:	1afffff2 	bne	13328 <_nl_load_domain+0xd74>
   1335c:	e58d801c 	str	r8, [sp, #28]
   13360:	e3a03000 	mov	r3, #0
   13364:	e1a02009 	mov	r2, r9
   13368:	e1a08007 	mov	r8, r7
   1336c:	e59d6028 	ldr	r6, [sp, #40]	; 0x28
   13370:	e58d202c 	str	r2, [sp, #44]	; 0x2c
   13374:	e59d2020 	ldr	r2, [sp, #32]
   13378:	e58d3024 	str	r3, [sp, #36]	; 0x24
   1337c:	e0821183 	add	r1, r2, r3, lsl #3
   13380:	e5910004 	ldr	r0, [r1, #4]
   13384:	eb0008d5 	bl	156e0 <__hash_string>
   13388:	e598702c 	ldr	r7, [r8, #44]	; 0x2c
   1338c:	e1a09000 	mov	r9, r0
   13390:	e1a01007 	mov	r1, r7
   13394:	eb012a83 	bl	5dda8 <__aeabi_uidivmod>
   13398:	e1a00009 	mov	r0, r9
   1339c:	e1a04001 	mov	r4, r1
   133a0:	e2471002 	sub	r1, r7, #2
   133a4:	eb012a7f 	bl	5dda8 <__aeabi_uidivmod>
   133a8:	e2811001 	add	r1, r1, #1
   133ac:	e047c001 	sub	ip, r7, r1
   133b0:	e59d3024 	ldr	r3, [sp, #36]	; 0x24
   133b4:	e0417007 	sub	r7, r1, r7
   133b8:	e59d202c 	ldr	r2, [sp, #44]	; 0x2c
   133bc:	ea000002 	b	133cc <_nl_load_domain+0xe18>
   133c0:	e15c0004 	cmp	ip, r4
   133c4:	90844007 	addls	r4, r4, r7
   133c8:	80844001 	addhi	r4, r4, r1
   133cc:	e7960104 	ldr	r0, [r6, r4, lsl #2]
   133d0:	e086e104 	add	lr, r6, r4, lsl #2
   133d4:	e3500000 	cmp	r0, #0
   133d8:	1afffff8 	bne	133c0 <_nl_load_domain+0xe0c>
   133dc:	e5981014 	ldr	r1, [r8, #20]
   133e0:	e59dc014 	ldr	ip, [sp, #20]
   133e4:	e2811001 	add	r1, r1, #1
   133e8:	e0811003 	add	r1, r1, r3
   133ec:	e2833001 	add	r3, r3, #1
   133f0:	e15c0003 	cmp	ip, r3
   133f4:	e58e1000 	str	r1, [lr]
   133f8:	1affffdc 	bne	13370 <_nl_load_domain+0xdbc>
   133fc:	e1a07008 	mov	r7, r8
   13400:	e1a09002 	mov	r9, r2
   13404:	e59d2020 	ldr	r2, [sp, #32]
   13408:	e59d801c 	ldr	r8, [sp, #28]
   1340c:	e5872024 	str	r2, [r7, #36]	; 0x24
   13410:	e59d2040 	ldr	r2, [sp, #64]	; 0x40
   13414:	e587c020 	str	ip, [r7, #32]
   13418:	e5872028 	str	r2, [r7, #40]	; 0x28
   1341c:	e59d2028 	ldr	r2, [sp, #40]	; 0x28
   13420:	e5870034 	str	r0, [r7, #52]	; 0x34
   13424:	e5872030 	str	r2, [r7, #48]	; 0x30
   13428:	eafffe80 	b	12e30 <_nl_load_domain+0x87c>
   1342c:	e59f2164 	ldr	r2, [pc, #356]	; 13598 <_nl_load_domain+0xfe4>
   13430:	eafffd3f 	b	12934 <_nl_load_domain+0x380>
   13434:	e3580036 	cmp	r8, #54	; 0x36
   13438:	1a000057 	bne	1359c <_nl_load_domain+0xfe8>
   1343c:	e5d32005 	ldrb	r2, [r3, #5]
   13440:	e3520034 	cmp	r2, #52	; 0x34
   13444:	13a02000 	movne	r2, #0
   13448:	1afffd39 	bne	12934 <_nl_load_domain+0x380>
   1344c:	e5d33006 	ldrb	r3, [r3, #6]
   13450:	e3530000 	cmp	r3, #0
   13454:	1a000013 	bne	134a8 <_nl_load_domain+0xef4>
   13458:	e3510064 	cmp	r1, #100	; 0x64
   1345c:	0a000085 	beq	13678 <_nl_load_domain+0x10c4>
   13460:	e3510069 	cmp	r1, #105	; 0x69
   13464:	13510064 	cmpne	r1, #100	; 0x64
   13468:	03a03001 	moveq	r3, #1
   1346c:	13a03000 	movne	r3, #0
   13470:	e3530000 	cmp	r3, #0
   13474:	1a00007d 	bne	13670 <_nl_load_domain+0x10bc>
   13478:	e351006f 	cmp	r1, #111	; 0x6f
   1347c:	0a0001eb 	beq	13c30 <_nl_load_domain+0x167c>
   13480:	e3510075 	cmp	r1, #117	; 0x75
   13484:	0a0001e7 	beq	13c28 <_nl_load_domain+0x1674>
   13488:	e3510078 	cmp	r1, #120	; 0x78
   1348c:	0a0001e3 	beq	13c20 <_nl_load_domain+0x166c>
   13490:	e3510058 	cmp	r1, #88	; 0x58
   13494:	1a0001e0 	bne	13c1c <_nl_load_domain+0x1668>
   13498:	e59f20cc 	ldr	r2, [pc, #204]	; 1356c <_nl_load_domain+0xfb8>
   1349c:	eafffd24 	b	12934 <_nl_load_domain+0x380>
   134a0:	e1a02008 	mov	r2, r8
   134a4:	eafffd22 	b	12934 <_nl_load_domain+0x380>
   134a8:	e3a02000 	mov	r2, #0
   134ac:	eafffd20 	b	12934 <_nl_load_domain+0x380>
   134b0:	e3a02000 	mov	r2, #0
   134b4:	eafffd1e 	b	12934 <_nl_load_domain+0x380>
   134b8:	e3a02000 	mov	r2, #0
   134bc:	eafffd1c 	b	12934 <_nl_load_domain+0x380>
   134c0:	e59f20c8 	ldr	r2, [pc, #200]	; 13590 <_nl_load_domain+0xfdc>
   134c4:	eafffd1a 	b	12934 <_nl_load_domain+0x380>
   134c8:	e59f20c4 	ldr	r2, [pc, #196]	; 13594 <_nl_load_domain+0xfe0>
   134cc:	eafffd18 	b	12934 <_nl_load_domain+0x380>
   134d0:	e3a02001 	mov	r2, #1
   134d4:	e58d202c 	str	r2, [sp, #44]	; 0x2c
   134d8:	e59d2038 	ldr	r2, [sp, #56]	; 0x38
   134dc:	e592200c 	ldr	r2, [r2, #12]
   134e0:	e58d2034 	str	r2, [sp, #52]	; 0x34
   134e4:	eafffef5 	b	130c0 <_nl_load_domain+0xb0c>
   134e8:	e59f20a4 	ldr	r2, [pc, #164]	; 13594 <_nl_load_domain+0xfe0>
   134ec:	eafffd10 	b	12934 <_nl_load_domain+0x380>
   134f0:	e59f2094 	ldr	r2, [pc, #148]	; 1358c <_nl_load_domain+0xfd8>
   134f4:	eafffd0e 	b	12934 <_nl_load_domain+0x380>
   134f8:	e59f2090 	ldr	r2, [pc, #144]	; 13590 <_nl_load_domain+0xfdc>
   134fc:	eafffd0c 	b	12934 <_nl_load_domain+0x380>
   13500:	e59f2090 	ldr	r2, [pc, #144]	; 13598 <_nl_load_domain+0xfe4>
   13504:	eafffd0a 	b	12934 <_nl_load_domain+0x380>
   13508:	e59f2088 	ldr	r2, [pc, #136]	; 13598 <_nl_load_domain+0xfe4>
   1350c:	eafffd08 	b	12934 <_nl_load_domain+0x380>
   13510:	e59f2078 	ldr	r2, [pc, #120]	; 13590 <_nl_load_domain+0xfdc>
   13514:	eafffd06 	b	12934 <_nl_load_domain+0x380>
   13518:	e59f2074 	ldr	r2, [pc, #116]	; 13594 <_nl_load_domain+0xfe0>
   1351c:	eafffd04 	b	12934 <_nl_load_domain+0x380>
   13520:	e59f2060 	ldr	r2, [pc, #96]	; 13588 <_nl_load_domain+0xfd4>
   13524:	eafffd02 	b	12934 <_nl_load_domain+0x380>
   13528:	e59f205c 	ldr	r2, [pc, #92]	; 1358c <_nl_load_domain+0xfd8>
   1352c:	eafffd00 	b	12934 <_nl_load_domain+0x380>
   13530:	e59f2050 	ldr	r2, [pc, #80]	; 13588 <_nl_load_domain+0xfd4>
   13534:	eafffcfe 	b	12934 <_nl_load_domain+0x380>
   13538:	e59f204c 	ldr	r2, [pc, #76]	; 1358c <_nl_load_domain+0xfd8>
   1353c:	eafffcfc 	b	12934 <_nl_load_domain+0x380>
   13540:	e59f2040 	ldr	r2, [pc, #64]	; 13588 <_nl_load_domain+0xfd4>
   13544:	eafffcfa 	b	12934 <_nl_load_domain+0x380>
   13548:	00087184 	.word	0x00087184
   1354c:	00085b98 	.word	0x00085b98
   13550:	950412de 	.word	0x950412de
   13554:	de120495 	.word	0xde120495
   13558:	00060cb8 	.word	0x00060cb8
   1355c:	000736b0 	.word	0x000736b0
   13560:	00000000 	.word	0x00000000
   13564:	0007485c 	.word	0x0007485c
   13568:	00000000 	.word	0x00000000
   1356c:	00060cc0 	.word	0x00060cc0
   13570:	00060cc8 	.word	0x00060cc8
   13574:	00060cc4 	.word	0x00060cc4
   13578:	000700f4 	.word	0x000700f4
   1357c:	00060cb4 	.word	0x00060cb4
   13580:	00060cbc 	.word	0x00060cbc
   13584:	00060cb0 	.word	0x00060cb0
   13588:	0006259c 	.word	0x0006259c
   1358c:	00060cac 	.word	0x00060cac
   13590:	000623c4 	.word	0x000623c4
   13594:	00070c18 	.word	0x00070c18
   13598:	00070e10 	.word	0x00070e10
   1359c:	e358004c 	cmp	r8, #76	; 0x4c
   135a0:	1a0000a1 	bne	1382c <_nl_load_domain+0x1278>
   135a4:	e5d32005 	ldrb	r2, [r3, #5]
   135a8:	e3520045 	cmp	r2, #69	; 0x45
   135ac:	13a02000 	movne	r2, #0
   135b0:	1afffcdf 	bne	12934 <_nl_load_domain+0x380>
   135b4:	e5d32006 	ldrb	r2, [r3, #6]
   135b8:	e3520041 	cmp	r2, #65	; 0x41
   135bc:	13a02000 	movne	r2, #0
   135c0:	1afffcdb 	bne	12934 <_nl_load_domain+0x380>
   135c4:	e5d32007 	ldrb	r2, [r3, #7]
   135c8:	e3520053 	cmp	r2, #83	; 0x53
   135cc:	13a02000 	movne	r2, #0
   135d0:	1afffcd7 	bne	12934 <_nl_load_domain+0x380>
   135d4:	e5d32008 	ldrb	r2, [r3, #8]
   135d8:	e3520054 	cmp	r2, #84	; 0x54
   135dc:	13a02000 	movne	r2, #0
   135e0:	1afffcd3 	bne	12934 <_nl_load_domain+0x380>
   135e4:	e5d32009 	ldrb	r2, [r3, #9]
   135e8:	e3520038 	cmp	r2, #56	; 0x38
   135ec:	0a000079 	beq	137d8 <_nl_load_domain+0x1224>
   135f0:	e3520031 	cmp	r2, #49	; 0x31
   135f4:	0a000046 	beq	13714 <_nl_load_domain+0x1160>
   135f8:	e3520033 	cmp	r2, #51	; 0x33
   135fc:	0a00002b 	beq	136b0 <_nl_load_domain+0x10fc>
   13600:	e3520036 	cmp	r2, #54	; 0x36
   13604:	13a02000 	movne	r2, #0
   13608:	1afffcc9 	bne	12934 <_nl_load_domain+0x380>
   1360c:	e5d3200a 	ldrb	r2, [r3, #10]
   13610:	e3520034 	cmp	r2, #52	; 0x34
   13614:	13a02000 	movne	r2, #0
   13618:	1afffcc5 	bne	12934 <_nl_load_domain+0x380>
   1361c:	e5d3300b 	ldrb	r3, [r3, #11]
   13620:	e3530000 	cmp	r3, #0
   13624:	1a00001f 	bne	136a8 <_nl_load_domain+0x10f4>
   13628:	e3510064 	cmp	r1, #100	; 0x64
   1362c:	0a00001b 	beq	136a0 <_nl_load_domain+0x10ec>
   13630:	e3510069 	cmp	r1, #105	; 0x69
   13634:	13510064 	cmpne	r1, #100	; 0x64
   13638:	03a03001 	moveq	r3, #1
   1363c:	13a03000 	movne	r3, #0
   13640:	e3530000 	cmp	r3, #0
   13644:	1a000013 	bne	13698 <_nl_load_domain+0x10e4>
   13648:	e351006f 	cmp	r1, #111	; 0x6f
   1364c:	0a00000f 	beq	13690 <_nl_load_domain+0x10dc>
   13650:	e3510075 	cmp	r1, #117	; 0x75
   13654:	0a00000b 	beq	13688 <_nl_load_domain+0x10d4>
   13658:	e3510078 	cmp	r1, #120	; 0x78
   1365c:	0a000007 	beq	13680 <_nl_load_domain+0x10cc>
   13660:	e3510058 	cmp	r1, #88	; 0x58
   13664:	1a00016c 	bne	13c1c <_nl_load_domain+0x1668>
   13668:	e51f2104 	ldr	r2, [pc, #-260]	; 1356c <_nl_load_domain+0xfb8>
   1366c:	eafffcb0 	b	12934 <_nl_load_domain+0x380>
   13670:	e51f2108 	ldr	r2, [pc, #-264]	; 13570 <_nl_load_domain+0xfbc>
   13674:	eafffcae 	b	12934 <_nl_load_domain+0x380>
   13678:	e51f210c 	ldr	r2, [pc, #-268]	; 13574 <_nl_load_domain+0xfc0>
   1367c:	eafffcac 	b	12934 <_nl_load_domain+0x380>
   13680:	e51f210c 	ldr	r2, [pc, #-268]	; 1357c <_nl_load_domain+0xfc8>
   13684:	eafffcaa 	b	12934 <_nl_load_domain+0x380>
   13688:	e51f2110 	ldr	r2, [pc, #-272]	; 13580 <_nl_load_domain+0xfcc>
   1368c:	eafffca8 	b	12934 <_nl_load_domain+0x380>
   13690:	e51f2114 	ldr	r2, [pc, #-276]	; 13584 <_nl_load_domain+0xfd0>
   13694:	eafffca6 	b	12934 <_nl_load_domain+0x380>
   13698:	e51f2130 	ldr	r2, [pc, #-304]	; 13570 <_nl_load_domain+0xfbc>
   1369c:	eafffca4 	b	12934 <_nl_load_domain+0x380>
   136a0:	e51f2134 	ldr	r2, [pc, #-308]	; 13574 <_nl_load_domain+0xfc0>
   136a4:	eafffca2 	b	12934 <_nl_load_domain+0x380>
   136a8:	e3a02000 	mov	r2, #0
   136ac:	eafffca0 	b	12934 <_nl_load_domain+0x380>
   136b0:	e5d3200a 	ldrb	r2, [r3, #10]
   136b4:	e3520032 	cmp	r2, #50	; 0x32
   136b8:	13a02000 	movne	r2, #0
   136bc:	1afffc9c 	bne	12934 <_nl_load_domain+0x380>
   136c0:	e5d3300b 	ldrb	r3, [r3, #11]
   136c4:	e3530000 	cmp	r3, #0
   136c8:	1a000040 	bne	137d0 <_nl_load_domain+0x121c>
   136cc:	e3510064 	cmp	r1, #100	; 0x64
   136d0:	0a00003c 	beq	137c8 <_nl_load_domain+0x1214>
   136d4:	e3510069 	cmp	r1, #105	; 0x69
   136d8:	13510064 	cmpne	r1, #100	; 0x64
   136dc:	03a03001 	moveq	r3, #1
   136e0:	13a03000 	movne	r3, #0
   136e4:	e3530000 	cmp	r3, #0
   136e8:	1a000028 	bne	13790 <_nl_load_domain+0x11dc>
   136ec:	e351006f 	cmp	r1, #111	; 0x6f
   136f0:	0a000024 	beq	13788 <_nl_load_domain+0x11d4>
   136f4:	e3510075 	cmp	r1, #117	; 0x75
   136f8:	0a000020 	beq	13780 <_nl_load_domain+0x11cc>
   136fc:	e3510078 	cmp	r1, #120	; 0x78
   13700:	0a00001c 	beq	13778 <_nl_load_domain+0x11c4>
   13704:	e3510058 	cmp	r1, #88	; 0x58
   13708:	1a000143 	bne	13c1c <_nl_load_domain+0x1668>
   1370c:	e51f219c 	ldr	r2, [pc, #-412]	; 13578 <_nl_load_domain+0xfc4>
   13710:	eafffc87 	b	12934 <_nl_load_domain+0x380>
   13714:	e5d3200a 	ldrb	r2, [r3, #10]
   13718:	e3520036 	cmp	r2, #54	; 0x36
   1371c:	13a02000 	movne	r2, #0
   13720:	1afffc83 	bne	12934 <_nl_load_domain+0x380>
   13724:	e5d3300b 	ldrb	r3, [r3, #11]
   13728:	e3530000 	cmp	r3, #0
   1372c:	1a000023 	bne	137c0 <_nl_load_domain+0x120c>
   13730:	e3510064 	cmp	r1, #100	; 0x64
   13734:	0a00001f 	beq	137b8 <_nl_load_domain+0x1204>
   13738:	e3510069 	cmp	r1, #105	; 0x69
   1373c:	13510064 	cmpne	r1, #100	; 0x64
   13740:	03a03001 	moveq	r3, #1
   13744:	13a03000 	movne	r3, #0
   13748:	e3530000 	cmp	r3, #0
   1374c:	1a000017 	bne	137b0 <_nl_load_domain+0x11fc>
   13750:	e351006f 	cmp	r1, #111	; 0x6f
   13754:	0a000013 	beq	137a8 <_nl_load_domain+0x11f4>
   13758:	e3510075 	cmp	r1, #117	; 0x75
   1375c:	0a00000f 	beq	137a0 <_nl_load_domain+0x11ec>
   13760:	e3510078 	cmp	r1, #120	; 0x78
   13764:	0a00000b 	beq	13798 <_nl_load_domain+0x11e4>
   13768:	e3510058 	cmp	r1, #88	; 0x58
   1376c:	1a00012a 	bne	13c1c <_nl_load_domain+0x1668>
   13770:	e51f2200 	ldr	r2, [pc, #-512]	; 13578 <_nl_load_domain+0xfc4>
   13774:	eafffc6e 	b	12934 <_nl_load_domain+0x380>
   13778:	e51f21f8 	ldr	r2, [pc, #-504]	; 13588 <_nl_load_domain+0xfd4>
   1377c:	eafffc6c 	b	12934 <_nl_load_domain+0x380>
   13780:	e51f21fc 	ldr	r2, [pc, #-508]	; 1358c <_nl_load_domain+0xfd8>
   13784:	eafffc6a 	b	12934 <_nl_load_domain+0x380>
   13788:	e51f2200 	ldr	r2, [pc, #-512]	; 13590 <_nl_load_domain+0xfdc>
   1378c:	eafffc68 	b	12934 <_nl_load_domain+0x380>
   13790:	e51f2204 	ldr	r2, [pc, #-516]	; 13594 <_nl_load_domain+0xfe0>
   13794:	eafffc66 	b	12934 <_nl_load_domain+0x380>
   13798:	e51f2218 	ldr	r2, [pc, #-536]	; 13588 <_nl_load_domain+0xfd4>
   1379c:	eafffc64 	b	12934 <_nl_load_domain+0x380>
   137a0:	e51f221c 	ldr	r2, [pc, #-540]	; 1358c <_nl_load_domain+0xfd8>
   137a4:	eafffc62 	b	12934 <_nl_load_domain+0x380>
   137a8:	e51f2220 	ldr	r2, [pc, #-544]	; 13590 <_nl_load_domain+0xfdc>
   137ac:	eafffc60 	b	12934 <_nl_load_domain+0x380>
   137b0:	e51f2224 	ldr	r2, [pc, #-548]	; 13594 <_nl_load_domain+0xfe0>
   137b4:	eafffc5e 	b	12934 <_nl_load_domain+0x380>
   137b8:	e51f2228 	ldr	r2, [pc, #-552]	; 13598 <_nl_load_domain+0xfe4>
   137bc:	eafffc5c 	b	12934 <_nl_load_domain+0x380>
   137c0:	e3a02000 	mov	r2, #0
   137c4:	eafffc5a 	b	12934 <_nl_load_domain+0x380>
   137c8:	e51f2238 	ldr	r2, [pc, #-568]	; 13598 <_nl_load_domain+0xfe4>
   137cc:	eafffc58 	b	12934 <_nl_load_domain+0x380>
   137d0:	e3a02000 	mov	r2, #0
   137d4:	eafffc56 	b	12934 <_nl_load_domain+0x380>
   137d8:	e5d3300a 	ldrb	r3, [r3, #10]
   137dc:	e3530000 	cmp	r3, #0
   137e0:	1a00010b 	bne	13c14 <_nl_load_domain+0x1660>
   137e4:	e3510064 	cmp	r1, #100	; 0x64
   137e8:	0a000107 	beq	13c0c <_nl_load_domain+0x1658>
   137ec:	e3510069 	cmp	r1, #105	; 0x69
   137f0:	13510064 	cmpne	r1, #100	; 0x64
   137f4:	03a03001 	moveq	r3, #1
   137f8:	13a03000 	movne	r3, #0
   137fc:	e3530000 	cmp	r3, #0
   13800:	1a0000ff 	bne	13c04 <_nl_load_domain+0x1650>
   13804:	e351006f 	cmp	r1, #111	; 0x6f
   13808:	0a0000fb 	beq	13bfc <_nl_load_domain+0x1648>
   1380c:	e3510075 	cmp	r1, #117	; 0x75
   13810:	0a000038 	beq	138f8 <_nl_load_domain+0x1344>
   13814:	e3510078 	cmp	r1, #120	; 0x78
   13818:	0a000034 	beq	138f0 <_nl_load_domain+0x133c>
   1381c:	e3510058 	cmp	r1, #88	; 0x58
   13820:	1a0000fd 	bne	13c1c <_nl_load_domain+0x1668>
   13824:	e51f22b4 	ldr	r2, [pc, #-692]	; 13578 <_nl_load_domain+0xfc4>
   13828:	eafffc41 	b	12934 <_nl_load_domain+0x380>
   1382c:	e3580046 	cmp	r8, #70	; 0x46
   13830:	1a00008d 	bne	13a6c <_nl_load_domain+0x14b8>
   13834:	e5d32005 	ldrb	r2, [r3, #5]
   13838:	e3520041 	cmp	r2, #65	; 0x41
   1383c:	13a02000 	movne	r2, #0
   13840:	1afffc3b 	bne	12934 <_nl_load_domain+0x380>
   13844:	e5d32006 	ldrb	r2, [r3, #6]
   13848:	e3520053 	cmp	r2, #83	; 0x53
   1384c:	13a02000 	movne	r2, #0
   13850:	1afffc37 	bne	12934 <_nl_load_domain+0x380>
   13854:	e5d32007 	ldrb	r2, [r3, #7]
   13858:	e3520054 	cmp	r2, #84	; 0x54
   1385c:	13a02000 	movne	r2, #0
   13860:	1afffc33 	bne	12934 <_nl_load_domain+0x380>
   13864:	e5d32008 	ldrb	r2, [r3, #8]
   13868:	e3520038 	cmp	r2, #56	; 0x38
   1386c:	0a000069 	beq	13a18 <_nl_load_domain+0x1464>
   13870:	e3520031 	cmp	r2, #49	; 0x31
   13874:	0a000046 	beq	13994 <_nl_load_domain+0x13e0>
   13878:	e3520033 	cmp	r2, #51	; 0x33
   1387c:	0a00002b 	beq	13930 <_nl_load_domain+0x137c>
   13880:	e3520036 	cmp	r2, #54	; 0x36
   13884:	13a02000 	movne	r2, #0
   13888:	1afffc29 	bne	12934 <_nl_load_domain+0x380>
   1388c:	e5d32009 	ldrb	r2, [r3, #9]
   13890:	e3520034 	cmp	r2, #52	; 0x34
   13894:	13a02000 	movne	r2, #0
   13898:	1afffc25 	bne	12934 <_nl_load_domain+0x380>
   1389c:	e5d3300a 	ldrb	r3, [r3, #10]
   138a0:	e3530000 	cmp	r3, #0
   138a4:	1a00001f 	bne	13928 <_nl_load_domain+0x1374>
   138a8:	e3510064 	cmp	r1, #100	; 0x64
   138ac:	0a00001b 	beq	13920 <_nl_load_domain+0x136c>
   138b0:	e3510069 	cmp	r1, #105	; 0x69
   138b4:	13510064 	cmpne	r1, #100	; 0x64
   138b8:	03a03001 	moveq	r3, #1
   138bc:	13a03000 	movne	r3, #0
   138c0:	e3530000 	cmp	r3, #0
   138c4:	1a000013 	bne	13918 <_nl_load_domain+0x1364>
   138c8:	e351006f 	cmp	r1, #111	; 0x6f
   138cc:	0a00000f 	beq	13910 <_nl_load_domain+0x135c>
   138d0:	e3510075 	cmp	r1, #117	; 0x75
   138d4:	0a00000b 	beq	13908 <_nl_load_domain+0x1354>
   138d8:	e3510078 	cmp	r1, #120	; 0x78
   138dc:	0a000007 	beq	13900 <_nl_load_domain+0x134c>
   138e0:	e3510058 	cmp	r1, #88	; 0x58
   138e4:	1a0000cc 	bne	13c1c <_nl_load_domain+0x1668>
   138e8:	e51f2384 	ldr	r2, [pc, #-900]	; 1356c <_nl_load_domain+0xfb8>
   138ec:	eafffc10 	b	12934 <_nl_load_domain+0x380>
   138f0:	e51f2370 	ldr	r2, [pc, #-880]	; 13588 <_nl_load_domain+0xfd4>
   138f4:	eafffc0e 	b	12934 <_nl_load_domain+0x380>
   138f8:	e51f2374 	ldr	r2, [pc, #-884]	; 1358c <_nl_load_domain+0xfd8>
   138fc:	eafffc0c 	b	12934 <_nl_load_domain+0x380>
   13900:	e51f238c 	ldr	r2, [pc, #-908]	; 1357c <_nl_load_domain+0xfc8>
   13904:	eafffc0a 	b	12934 <_nl_load_domain+0x380>
   13908:	e51f2390 	ldr	r2, [pc, #-912]	; 13580 <_nl_load_domain+0xfcc>
   1390c:	eafffc08 	b	12934 <_nl_load_domain+0x380>
   13910:	e51f2394 	ldr	r2, [pc, #-916]	; 13584 <_nl_load_domain+0xfd0>
   13914:	eafffc06 	b	12934 <_nl_load_domain+0x380>
   13918:	e51f23b0 	ldr	r2, [pc, #-944]	; 13570 <_nl_load_domain+0xfbc>
   1391c:	eafffc04 	b	12934 <_nl_load_domain+0x380>
   13920:	e51f23b4 	ldr	r2, [pc, #-948]	; 13574 <_nl_load_domain+0xfc0>
   13924:	eafffc02 	b	12934 <_nl_load_domain+0x380>
   13928:	e3a02000 	mov	r2, #0
   1392c:	eafffc00 	b	12934 <_nl_load_domain+0x380>
   13930:	e5d32009 	ldrb	r2, [r3, #9]
   13934:	e3520032 	cmp	r2, #50	; 0x32
   13938:	13a02000 	movne	r2, #0
   1393c:	1afffbfc 	bne	12934 <_nl_load_domain+0x380>
   13940:	e5d3300a 	ldrb	r3, [r3, #10]
   13944:	e3530000 	cmp	r3, #0
   13948:	1a000030 	bne	13a10 <_nl_load_domain+0x145c>
   1394c:	e3510064 	cmp	r1, #100	; 0x64
   13950:	0a00002c 	beq	13a08 <_nl_load_domain+0x1454>
   13954:	e3510069 	cmp	r1, #105	; 0x69
   13958:	13510064 	cmpne	r1, #100	; 0x64
   1395c:	03a03001 	moveq	r3, #1
   13960:	13a03000 	movne	r3, #0
   13964:	e3530000 	cmp	r3, #0
   13968:	1a0000b4 	bne	13c40 <_nl_load_domain+0x168c>
   1396c:	e351006f 	cmp	r1, #111	; 0x6f
   13970:	0a0000b0 	beq	13c38 <_nl_load_domain+0x1684>
   13974:	e3510075 	cmp	r1, #117	; 0x75
   13978:	0a000020 	beq	13a00 <_nl_load_domain+0x144c>
   1397c:	e3510078 	cmp	r1, #120	; 0x78
   13980:	0a00001c 	beq	139f8 <_nl_load_domain+0x1444>
   13984:	e3510058 	cmp	r1, #88	; 0x58
   13988:	1a0000a3 	bne	13c1c <_nl_load_domain+0x1668>
   1398c:	e51f241c 	ldr	r2, [pc, #-1052]	; 13578 <_nl_load_domain+0xfc4>
   13990:	eafffbe7 	b	12934 <_nl_load_domain+0x380>
   13994:	e5d32009 	ldrb	r2, [r3, #9]
   13998:	e3520036 	cmp	r2, #54	; 0x36
   1399c:	13a02000 	movne	r2, #0
   139a0:	1afffbe3 	bne	12934 <_nl_load_domain+0x380>
   139a4:	e5d3300a 	ldrb	r3, [r3, #10]
   139a8:	e3530000 	cmp	r3, #0
   139ac:	1a0000af 	bne	13c70 <_nl_load_domain+0x16bc>
   139b0:	e3510064 	cmp	r1, #100	; 0x64
   139b4:	0a0000ab 	beq	13c68 <_nl_load_domain+0x16b4>
   139b8:	e3510069 	cmp	r1, #105	; 0x69
   139bc:	13510064 	cmpne	r1, #100	; 0x64
   139c0:	03a03001 	moveq	r3, #1
   139c4:	13a03000 	movne	r3, #0
   139c8:	e3530000 	cmp	r3, #0
   139cc:	1a0000a3 	bne	13c60 <_nl_load_domain+0x16ac>
   139d0:	e351006f 	cmp	r1, #111	; 0x6f
   139d4:	0a00009f 	beq	13c58 <_nl_load_domain+0x16a4>
   139d8:	e3510075 	cmp	r1, #117	; 0x75
   139dc:	0a00009b 	beq	13c50 <_nl_load_domain+0x169c>
   139e0:	e3510078 	cmp	r1, #120	; 0x78
   139e4:	0a000097 	beq	13c48 <_nl_load_domain+0x1694>
   139e8:	e3510058 	cmp	r1, #88	; 0x58
   139ec:	1a00008a 	bne	13c1c <_nl_load_domain+0x1668>
   139f0:	e51f2480 	ldr	r2, [pc, #-1152]	; 13578 <_nl_load_domain+0xfc4>
   139f4:	eafffbce 	b	12934 <_nl_load_domain+0x380>
   139f8:	e51f2478 	ldr	r2, [pc, #-1144]	; 13588 <_nl_load_domain+0xfd4>
   139fc:	eafffbcc 	b	12934 <_nl_load_domain+0x380>
   13a00:	e51f247c 	ldr	r2, [pc, #-1148]	; 1358c <_nl_load_domain+0xfd8>
   13a04:	eafffbca 	b	12934 <_nl_load_domain+0x380>
   13a08:	e51f2478 	ldr	r2, [pc, #-1144]	; 13598 <_nl_load_domain+0xfe4>
   13a0c:	eafffbc8 	b	12934 <_nl_load_domain+0x380>
   13a10:	e3a02000 	mov	r2, #0
   13a14:	eafffbc6 	b	12934 <_nl_load_domain+0x380>
   13a18:	e5d33009 	ldrb	r3, [r3, #9]
   13a1c:	e3530000 	cmp	r3, #0
   13a20:	1a000063 	bne	13bb4 <_nl_load_domain+0x1600>
   13a24:	e3510064 	cmp	r1, #100	; 0x64
   13a28:	0a00005f 	beq	13bac <_nl_load_domain+0x15f8>
   13a2c:	e3510069 	cmp	r1, #105	; 0x69
   13a30:	13510064 	cmpne	r1, #100	; 0x64
   13a34:	03a03001 	moveq	r3, #1
   13a38:	13a03000 	movne	r3, #0
   13a3c:	e3530000 	cmp	r3, #0
   13a40:	1a00005d 	bne	13bbc <_nl_load_domain+0x1608>
   13a44:	e351006f 	cmp	r1, #111	; 0x6f
   13a48:	0a000055 	beq	13ba4 <_nl_load_domain+0x15f0>
   13a4c:	e3510075 	cmp	r1, #117	; 0x75
   13a50:	0a000026 	beq	13af0 <_nl_load_domain+0x153c>
   13a54:	e3510078 	cmp	r1, #120	; 0x78
   13a58:	0a000022 	beq	13ae8 <_nl_load_domain+0x1534>
   13a5c:	e3510058 	cmp	r1, #88	; 0x58
   13a60:	1a00006d 	bne	13c1c <_nl_load_domain+0x1668>
   13a64:	e51f24f4 	ldr	r2, [pc, #-1268]	; 13578 <_nl_load_domain+0xfc4>
   13a68:	eafffbb1 	b	12934 <_nl_load_domain+0x380>
   13a6c:	e358004d 	cmp	r8, #77	; 0x4d
   13a70:	1a00002c 	bne	13b28 <_nl_load_domain+0x1574>
   13a74:	e5d32005 	ldrb	r2, [r3, #5]
   13a78:	e3520041 	cmp	r2, #65	; 0x41
   13a7c:	13a02000 	movne	r2, #0
   13a80:	1afffbab 	bne	12934 <_nl_load_domain+0x380>
   13a84:	e5d32006 	ldrb	r2, [r3, #6]
   13a88:	e3520058 	cmp	r2, #88	; 0x58
   13a8c:	13a02000 	movne	r2, #0
   13a90:	1afffba7 	bne	12934 <_nl_load_domain+0x380>
   13a94:	e5d33007 	ldrb	r3, [r3, #7]
   13a98:	e3530000 	cmp	r3, #0
   13a9c:	1a00001f 	bne	13b20 <_nl_load_domain+0x156c>
   13aa0:	e3510064 	cmp	r1, #100	; 0x64
   13aa4:	0a00001b 	beq	13b18 <_nl_load_domain+0x1564>
   13aa8:	e3510069 	cmp	r1, #105	; 0x69
   13aac:	13510064 	cmpne	r1, #100	; 0x64
   13ab0:	03a03001 	moveq	r3, #1
   13ab4:	13a03000 	movne	r3, #0
   13ab8:	e3530000 	cmp	r3, #0
   13abc:	1a000013 	bne	13b10 <_nl_load_domain+0x155c>
   13ac0:	e351006f 	cmp	r1, #111	; 0x6f
   13ac4:	0a00000f 	beq	13b08 <_nl_load_domain+0x1554>
   13ac8:	e3510075 	cmp	r1, #117	; 0x75
   13acc:	0a00000b 	beq	13b00 <_nl_load_domain+0x154c>
   13ad0:	e3510078 	cmp	r1, #120	; 0x78
   13ad4:	0a000007 	beq	13af8 <_nl_load_domain+0x1544>
   13ad8:	e3510058 	cmp	r1, #88	; 0x58
   13adc:	1a00004e 	bne	13c1c <_nl_load_domain+0x1668>
   13ae0:	e51f257c 	ldr	r2, [pc, #-1404]	; 1356c <_nl_load_domain+0xfb8>
   13ae4:	eafffb92 	b	12934 <_nl_load_domain+0x380>
   13ae8:	e51f2568 	ldr	r2, [pc, #-1384]	; 13588 <_nl_load_domain+0xfd4>
   13aec:	eafffb90 	b	12934 <_nl_load_domain+0x380>
   13af0:	e51f256c 	ldr	r2, [pc, #-1388]	; 1358c <_nl_load_domain+0xfd8>
   13af4:	eafffb8e 	b	12934 <_nl_load_domain+0x380>
   13af8:	e51f2584 	ldr	r2, [pc, #-1412]	; 1357c <_nl_load_domain+0xfc8>
   13afc:	eafffb8c 	b	12934 <_nl_load_domain+0x380>
   13b00:	e51f2588 	ldr	r2, [pc, #-1416]	; 13580 <_nl_load_domain+0xfcc>
   13b04:	eafffb8a 	b	12934 <_nl_load_domain+0x380>
   13b08:	e51f258c 	ldr	r2, [pc, #-1420]	; 13584 <_nl_load_domain+0xfd0>
   13b0c:	eafffb88 	b	12934 <_nl_load_domain+0x380>
   13b10:	e51f25a8 	ldr	r2, [pc, #-1448]	; 13570 <_nl_load_domain+0xfbc>
   13b14:	eafffb86 	b	12934 <_nl_load_domain+0x380>
   13b18:	e51f25ac 	ldr	r2, [pc, #-1452]	; 13574 <_nl_load_domain+0xfc0>
   13b1c:	eafffb84 	b	12934 <_nl_load_domain+0x380>
   13b20:	e3a02000 	mov	r2, #0
   13b24:	eafffb82 	b	12934 <_nl_load_domain+0x380>
   13b28:	e3580050 	cmp	r8, #80	; 0x50
   13b2c:	1a000030 	bne	13bf4 <_nl_load_domain+0x1640>
   13b30:	e5d32005 	ldrb	r2, [r3, #5]
   13b34:	e3520054 	cmp	r2, #84	; 0x54
   13b38:	13a02000 	movne	r2, #0
   13b3c:	1afffb7c 	bne	12934 <_nl_load_domain+0x380>
   13b40:	e5d32006 	ldrb	r2, [r3, #6]
   13b44:	e3520052 	cmp	r2, #82	; 0x52
   13b48:	13a02000 	movne	r2, #0
   13b4c:	1afffb78 	bne	12934 <_nl_load_domain+0x380>
   13b50:	e5d33007 	ldrb	r3, [r3, #7]
   13b54:	e3530000 	cmp	r3, #0
   13b58:	1a000023 	bne	13bec <_nl_load_domain+0x1638>
   13b5c:	e3510064 	cmp	r1, #100	; 0x64
   13b60:	0a00001f 	beq	13be4 <_nl_load_domain+0x1630>
   13b64:	e3510069 	cmp	r1, #105	; 0x69
   13b68:	13510064 	cmpne	r1, #100	; 0x64
   13b6c:	03a03001 	moveq	r3, #1
   13b70:	13a03000 	movne	r3, #0
   13b74:	e3530000 	cmp	r3, #0
   13b78:	1a000017 	bne	13bdc <_nl_load_domain+0x1628>
   13b7c:	e351006f 	cmp	r1, #111	; 0x6f
   13b80:	0a000013 	beq	13bd4 <_nl_load_domain+0x1620>
   13b84:	e3510075 	cmp	r1, #117	; 0x75
   13b88:	0a00000f 	beq	13bcc <_nl_load_domain+0x1618>
   13b8c:	e3510078 	cmp	r1, #120	; 0x78
   13b90:	0a00000b 	beq	13bc4 <_nl_load_domain+0x1610>
   13b94:	e3510058 	cmp	r1, #88	; 0x58
   13b98:	1a00001f 	bne	13c1c <_nl_load_domain+0x1668>
   13b9c:	e51f262c 	ldr	r2, [pc, #-1580]	; 13578 <_nl_load_domain+0xfc4>
   13ba0:	eafffb63 	b	12934 <_nl_load_domain+0x380>
   13ba4:	e51f261c 	ldr	r2, [pc, #-1564]	; 13590 <_nl_load_domain+0xfdc>
   13ba8:	eafffb61 	b	12934 <_nl_load_domain+0x380>
   13bac:	e51f261c 	ldr	r2, [pc, #-1564]	; 13598 <_nl_load_domain+0xfe4>
   13bb0:	eafffb5f 	b	12934 <_nl_load_domain+0x380>
   13bb4:	e3a02000 	mov	r2, #0
   13bb8:	eafffb5d 	b	12934 <_nl_load_domain+0x380>
   13bbc:	e51f2630 	ldr	r2, [pc, #-1584]	; 13594 <_nl_load_domain+0xfe0>
   13bc0:	eafffb5b 	b	12934 <_nl_load_domain+0x380>
   13bc4:	e51f2644 	ldr	r2, [pc, #-1604]	; 13588 <_nl_load_domain+0xfd4>
   13bc8:	eafffb59 	b	12934 <_nl_load_domain+0x380>
   13bcc:	e51f2648 	ldr	r2, [pc, #-1608]	; 1358c <_nl_load_domain+0xfd8>
   13bd0:	eafffb57 	b	12934 <_nl_load_domain+0x380>
   13bd4:	e51f264c 	ldr	r2, [pc, #-1612]	; 13590 <_nl_load_domain+0xfdc>
   13bd8:	eafffb55 	b	12934 <_nl_load_domain+0x380>
   13bdc:	e51f2650 	ldr	r2, [pc, #-1616]	; 13594 <_nl_load_domain+0xfe0>
   13be0:	eafffb53 	b	12934 <_nl_load_domain+0x380>
   13be4:	e51f2654 	ldr	r2, [pc, #-1620]	; 13598 <_nl_load_domain+0xfe4>
   13be8:	eafffb51 	b	12934 <_nl_load_domain+0x380>
   13bec:	e3a02000 	mov	r2, #0
   13bf0:	eafffb4f 	b	12934 <_nl_load_domain+0x380>
   13bf4:	e3a02000 	mov	r2, #0
   13bf8:	eafffb4d 	b	12934 <_nl_load_domain+0x380>
   13bfc:	e51f2674 	ldr	r2, [pc, #-1652]	; 13590 <_nl_load_domain+0xfdc>
   13c00:	eafffb4b 	b	12934 <_nl_load_domain+0x380>
   13c04:	e51f2678 	ldr	r2, [pc, #-1656]	; 13594 <_nl_load_domain+0xfe0>
   13c08:	eafffb49 	b	12934 <_nl_load_domain+0x380>
   13c0c:	e51f267c 	ldr	r2, [pc, #-1660]	; 13598 <_nl_load_domain+0xfe4>
   13c10:	eafffb47 	b	12934 <_nl_load_domain+0x380>
   13c14:	e3a02000 	mov	r2, #0
   13c18:	eafffb45 	b	12934 <_nl_load_domain+0x380>
   13c1c:	eb0006bd 	bl	15718 <abort>
   13c20:	e51f26ac 	ldr	r2, [pc, #-1708]	; 1357c <_nl_load_domain+0xfc8>
   13c24:	eafffb42 	b	12934 <_nl_load_domain+0x380>
   13c28:	e51f26b0 	ldr	r2, [pc, #-1712]	; 13580 <_nl_load_domain+0xfcc>
   13c2c:	eafffb40 	b	12934 <_nl_load_domain+0x380>
   13c30:	e51f26b4 	ldr	r2, [pc, #-1716]	; 13584 <_nl_load_domain+0xfd0>
   13c34:	eafffb3e 	b	12934 <_nl_load_domain+0x380>
   13c38:	e51f26b0 	ldr	r2, [pc, #-1712]	; 13590 <_nl_load_domain+0xfdc>
   13c3c:	eafffb3c 	b	12934 <_nl_load_domain+0x380>
   13c40:	e51f26b4 	ldr	r2, [pc, #-1716]	; 13594 <_nl_load_domain+0xfe0>
   13c44:	eafffb3a 	b	12934 <_nl_load_domain+0x380>
   13c48:	e51f26c8 	ldr	r2, [pc, #-1736]	; 13588 <_nl_load_domain+0xfd4>
   13c4c:	eafffb38 	b	12934 <_nl_load_domain+0x380>
   13c50:	e51f26cc 	ldr	r2, [pc, #-1740]	; 1358c <_nl_load_domain+0xfd8>
   13c54:	eafffb36 	b	12934 <_nl_load_domain+0x380>
   13c58:	e51f26d0 	ldr	r2, [pc, #-1744]	; 13590 <_nl_load_domain+0xfdc>
   13c5c:	eafffb34 	b	12934 <_nl_load_domain+0x380>
   13c60:	e51f26d4 	ldr	r2, [pc, #-1748]	; 13594 <_nl_load_domain+0xfe0>
   13c64:	eafffb32 	b	12934 <_nl_load_domain+0x380>
   13c68:	e51f26d8 	ldr	r2, [pc, #-1752]	; 13598 <_nl_load_domain+0xfe4>
   13c6c:	eafffb30 	b	12934 <_nl_load_domain+0x380>
   13c70:	e3a02000 	mov	r2, #0
   13c74:	eafffb2e 	b	12934 <_nl_load_domain+0x380>

00013c78 <alias_compare>:
   13c78:	e5911000 	ldr	r1, [r1]
   13c7c:	e5900000 	ldr	r0, [r0]
   13c80:	e59f2000 	ldr	r2, [pc]	; 13c88 <alias_compare+0x10>
   13c84:	ea004d3d 	b	27180 <__strcasecmp_l>
   13c88:	0006faf8 	.word	0x0006faf8

00013c8c <read_alias_file>:
   13c8c:	e92d4ff0 	push	{r4, r5, r6, r7, r8, r9, sl, fp, lr}
   13c90:	e281301c 	add	r3, r1, #28
   13c94:	e28db020 	add	fp, sp, #32
   13c98:	e3c33007 	bic	r3, r3, #7
   13c9c:	e24ddf6f 	sub	sp, sp, #444	; 0x1bc
   13ca0:	e04dd003 	sub	sp, sp, r3
   13ca4:	e1a0400d 	mov	r4, sp
   13ca8:	e59f3414 	ldr	r3, [pc, #1044]	; 140c4 <read_alias_file+0x438>
   13cac:	e1a02001 	mov	r2, r1
   13cb0:	e5933000 	ldr	r3, [r3]
   13cb4:	e1a01000 	mov	r1, r0
   13cb8:	e1a00004 	mov	r0, r4
   13cbc:	e50b3028 	str	r3, [fp, #-40]	; 0xffffffd8
   13cc0:	eb004d1d 	bl	2713c <__mempcpy>
   13cc4:	e3a0200e 	mov	r2, #14
   13cc8:	e59f13f8 	ldr	r1, [pc, #1016]	; 140c8 <read_alias_file+0x43c>
   13ccc:	eb004d3b 	bl	271c0 <memcpy>
   13cd0:	e1a00004 	mov	r0, r4
   13cd4:	e59f13f0 	ldr	r1, [pc, #1008]	; 140cc <read_alias_file+0x440>
   13cd8:	eb000f39 	bl	179c4 <_IO_new_fopen>
   13cdc:	e2508000 	subs	r8, r0, #0
   13ce0:	050b81c0 	streq	r8, [fp, #-448]	; 0xfffffe40
   13ce4:	0a00002c 	beq	13d9c <read_alias_file+0x110>
   13ce8:	e5983000 	ldr	r3, [r8]
   13cec:	e3832902 	orr	r2, r3, #32768	; 0x8000
   13cf0:	e2133010 	ands	r3, r3, #16
   13cf4:	e5882000 	str	r2, [r8]
   13cf8:	050b31c0 	streq	r3, [fp, #-448]	; 0xfffffe40
   13cfc:	059fa3cc 	ldreq	sl, [pc, #972]	; 140d0 <read_alias_file+0x444>
   13d00:	1a0000ea 	bne	140b0 <read_alias_file+0x424>
   13d04:	e1a02008 	mov	r2, r8
   13d08:	e3a01e19 	mov	r1, #400	; 0x190
   13d0c:	e24b0f6e 	sub	r0, fp, #440	; 0x1b8
   13d10:	eb0017d1 	bl	19c5c <__fgets_unlocked>
   13d14:	e3500000 	cmp	r0, #0
   13d18:	0a00001a 	beq	13d88 <read_alias_file+0xfc>
   13d1c:	e3a0100a 	mov	r1, #10
   13d20:	e24b0f6e 	sub	r0, fp, #440	; 0x1b8
   13d24:	eb004764 	bl	25abc <strchr>
   13d28:	e1a06000 	mov	r6, r0
   13d2c:	ebfff383 	bl	10b40 <__aeabi_read_tp>
   13d30:	e59f239c 	ldr	r2, [pc, #924]	; 140d4 <read_alias_file+0x448>
   13d34:	e55b31b8 	ldrb	r3, [fp, #-440]	; 0xfffffe48
   13d38:	e79f2002 	ldr	r2, [pc, r2]
   13d3c:	e1a01083 	lsl	r1, r3, #1
   13d40:	e7902002 	ldr	r2, [r0, r2]
   13d44:	e24b4f6e 	sub	r4, fp, #440	; 0x1b8
   13d48:	e19210b1 	ldrh	r1, [r2, r1]
   13d4c:	e3110a02 	tst	r1, #8192	; 0x2000
   13d50:	0a000004 	beq	13d68 <read_alias_file+0xdc>
   13d54:	e5f43001 	ldrb	r3, [r4, #1]!
   13d58:	e1a01083 	lsl	r1, r3, #1
   13d5c:	e19210b1 	ldrh	r1, [r2, r1]
   13d60:	e3110a02 	tst	r1, #8192	; 0x2000
   13d64:	1afffffa 	bne	13d54 <read_alias_file+0xc8>
   13d68:	e3530000 	cmp	r3, #0
   13d6c:	13530023 	cmpne	r3, #35	; 0x23
   13d70:	1a00001d 	bne	13dec <read_alias_file+0x160>
   13d74:	e3560000 	cmp	r6, #0
   13d78:	0a000014 	beq	13dd0 <read_alias_file+0x144>
   13d7c:	e5983000 	ldr	r3, [r8]
   13d80:	e3130010 	tst	r3, #16
   13d84:	0affffde 	beq	13d04 <read_alias_file+0x78>
   13d88:	e1a00008 	mov	r0, r8
   13d8c:	eb000d6c 	bl	17344 <_IO_new_fclose>
   13d90:	e51b31c0 	ldr	r3, [fp, #-448]	; 0xfffffe40
   13d94:	e3530000 	cmp	r3, #0
   13d98:	1a000090 	bne	13fe0 <read_alias_file+0x354>
   13d9c:	e59f3320 	ldr	r3, [pc, #800]	; 140c4 <read_alias_file+0x438>
   13da0:	e51b2028 	ldr	r2, [fp, #-40]	; 0xffffffd8
   13da4:	e5933000 	ldr	r3, [r3]
   13da8:	e51b01c0 	ldr	r0, [fp, #-448]	; 0xfffffe40
   13dac:	e1520003 	cmp	r2, r3
   13db0:	1a0000c2 	bne	140c0 <read_alias_file+0x434>
   13db4:	e24bd020 	sub	sp, fp, #32
   13db8:	e8bd8ff0 	pop	{r4, r5, r6, r7, r8, r9, sl, fp, pc}
   13dbc:	e3a0100a 	mov	r1, #10
   13dc0:	e24b0f6e 	sub	r0, fp, #440	; 0x1b8
   13dc4:	eb00473c 	bl	25abc <strchr>
   13dc8:	e3500000 	cmp	r0, #0
   13dcc:	1affffea 	bne	13d7c <read_alias_file+0xf0>
   13dd0:	e1a02008 	mov	r2, r8
   13dd4:	e3a01e19 	mov	r1, #400	; 0x190
   13dd8:	e24b0f6e 	sub	r0, fp, #440	; 0x1b8
   13ddc:	eb00179e 	bl	19c5c <__fgets_unlocked>
   13de0:	e3500000 	cmp	r0, #0
   13de4:	1afffff4 	bne	13dbc <read_alias_file+0x130>
   13de8:	eaffffe3 	b	13d7c <read_alias_file+0xf0>
   13dec:	e5d41001 	ldrb	r1, [r4, #1]
   13df0:	e2845001 	add	r5, r4, #1
   13df4:	ea000002 	b	13e04 <read_alias_file+0x178>
   13df8:	e3530000 	cmp	r3, #0
   13dfc:	1a000050 	bne	13f44 <read_alias_file+0x2b8>
   13e00:	e5f51001 	ldrb	r1, [r5, #1]!
   13e04:	e1a03081 	lsl	r3, r1, #1
   13e08:	e19230b3 	ldrh	r3, [r2, r3]
   13e0c:	e3510000 	cmp	r1, #0
   13e10:	e2033a02 	and	r3, r3, #8192	; 0x2000
   13e14:	1afffff7 	bne	13df8 <read_alias_file+0x16c>
   13e18:	e3530000 	cmp	r3, #0
   13e1c:	0affffd4 	beq	13d74 <read_alias_file+0xe8>
   13e20:	e5f53001 	ldrb	r3, [r5, #1]!
   13e24:	e1a01083 	lsl	r1, r3, #1
   13e28:	e19210b1 	ldrh	r1, [r2, r1]
   13e2c:	e3110a02 	tst	r1, #8192	; 0x2000
   13e30:	1afffffa 	bne	13e20 <read_alias_file+0x194>
   13e34:	e3530000 	cmp	r3, #0
   13e38:	0affffcd 	beq	13d74 <read_alias_file+0xe8>
   13e3c:	e5d53001 	ldrb	r3, [r5, #1]
   13e40:	e2851001 	add	r1, r5, #1
   13e44:	e3530000 	cmp	r3, #0
   13e48:	1a000003 	bne	13e5c <read_alias_file+0x1d0>
   13e4c:	ea00000b 	b	13e80 <read_alias_file+0x1f4>
   13e50:	e5f13001 	ldrb	r3, [r1, #1]!
   13e54:	e3530000 	cmp	r3, #0
   13e58:	0a000008 	beq	13e80 <read_alias_file+0x1f4>
   13e5c:	e1a00083 	lsl	r0, r3, #1
   13e60:	e19200b0 	ldrh	r0, [r2, r0]
   13e64:	e3100a02 	tst	r0, #8192	; 0x2000
   13e68:	0afffff8 	beq	13e50 <read_alias_file+0x1c4>
   13e6c:	e353000a 	cmp	r3, #10
   13e70:	03a02000 	moveq	r2, #0
   13e74:	05c13001 	strbeq	r3, [r1, #1]
   13e78:	05c12000 	strbeq	r2, [r1]
   13e7c:	1a00005f 	bne	14000 <read_alias_file+0x374>
   13e80:	e59a7000 	ldr	r7, [sl]
   13e84:	e59a3004 	ldr	r3, [sl, #4]
   13e88:	e1570003 	cmp	r7, r3
   13e8c:	2a000061 	bcs	14018 <read_alias_file+0x38c>
   13e90:	e1a00004 	mov	r0, r4
   13e94:	eb0047cd 	bl	25dd0 <strlen>
   13e98:	e2802001 	add	r2, r0, #1
   13e9c:	e1a00005 	mov	r0, r5
   13ea0:	e50b21c4 	str	r2, [fp, #-452]	; 0xfffffe3c
   13ea4:	eb0047c9 	bl	25dd0 <strlen>
   13ea8:	e59a3008 	ldr	r3, [sl, #8]
   13eac:	e51b21c4 	ldr	r2, [fp, #-452]	; 0xfffffe3c
   13eb0:	e2809001 	add	r9, r0, #1
   13eb4:	e50b31cc 	str	r3, [fp, #-460]	; 0xfffffe34
   13eb8:	e59a100c 	ldr	r1, [sl, #12]
   13ebc:	e0833002 	add	r3, r3, r2
   13ec0:	e50b31d0 	str	r3, [fp, #-464]	; 0xfffffe30
   13ec4:	e59f020c 	ldr	r0, [pc, #524]	; 140d8 <read_alias_file+0x44c>
   13ec8:	e0833009 	add	r3, r3, r9
   13ecc:	e1530001 	cmp	r3, r1
   13ed0:	e50b31d4 	str	r3, [fp, #-468]	; 0xfffffe2c
   13ed4:	e5903004 	ldr	r3, [r0, #4]
   13ed8:	9a000024 	bls	13f70 <read_alias_file+0x2e4>
   13edc:	e0820009 	add	r0, r2, r9
   13ee0:	e3500b01 	cmp	r0, #1024	; 0x400
   13ee4:	20811000 	addcs	r1, r1, r0
   13ee8:	32811b01 	addcc	r1, r1, #1024	; 0x400
   13eec:	e1a00003 	mov	r0, r3
   13ef0:	e50b21c8 	str	r2, [fp, #-456]	; 0xfffffe38
   13ef4:	e50b11d8 	str	r1, [fp, #-472]	; 0xfffffe28
   13ef8:	e50b31c4 	str	r3, [fp, #-452]	; 0xfffffe3c
   13efc:	eb004265 	bl	24898 <__libc_realloc>
   13f00:	e3500000 	cmp	r0, #0
   13f04:	0affff9f 	beq	13d88 <read_alias_file+0xfc>
   13f08:	e59f21c8 	ldr	r2, [pc, #456]	; 140d8 <read_alias_file+0x44c>
   13f0c:	e51b31c4 	ldr	r3, [fp, #-452]	; 0xfffffe3c
   13f10:	e5922000 	ldr	r2, [r2]
   13f14:	e1500003 	cmp	r0, r3
   13f18:	e50b21c4 	str	r2, [fp, #-452]	; 0xfffffe3c
   13f1c:	e51b21c8 	ldr	r2, [fp, #-456]	; 0xfffffe38
   13f20:	1a00004a 	bne	14050 <read_alias_file+0x3c4>
   13f24:	e1a03187 	lsl	r3, r7, #3
   13f28:	e50b31c8 	str	r3, [fp, #-456]	; 0xfffffe38
   13f2c:	e59f11a4 	ldr	r1, [pc, #420]	; 140d8 <read_alias_file+0x44c>
   13f30:	e1a03000 	mov	r3, r0
   13f34:	e5810004 	str	r0, [r1, #4]
   13f38:	e51b11d8 	ldr	r1, [fp, #-472]	; 0xfffffe28
   13f3c:	e58a100c 	str	r1, [sl, #12]
   13f40:	ea00000e 	b	13f80 <read_alias_file+0x2f4>
   13f44:	e3a01000 	mov	r1, #0
   13f48:	e5d53001 	ldrb	r3, [r5, #1]
   13f4c:	e5c51000 	strb	r1, [r5]
   13f50:	e1a01083 	lsl	r1, r3, #1
   13f54:	e19210b1 	ldrh	r1, [r2, r1]
   13f58:	e2855001 	add	r5, r5, #1
   13f5c:	e3110a02 	tst	r1, #8192	; 0x2000
   13f60:	1affffae 	bne	13e20 <read_alias_file+0x194>
   13f64:	e3530000 	cmp	r3, #0
   13f68:	0affff81 	beq	13d74 <read_alias_file+0xe8>
   13f6c:	eaffffb2 	b	13e3c <read_alias_file+0x1b0>
   13f70:	e5901000 	ldr	r1, [r0]
   13f74:	e50b11c4 	str	r1, [fp, #-452]	; 0xfffffe3c
   13f78:	e1a01187 	lsl	r1, r7, #3
   13f7c:	e50b11c8 	str	r1, [fp, #-456]	; 0xfffffe38
   13f80:	e51b01cc 	ldr	r0, [fp, #-460]	; 0xfffffe34
   13f84:	e1a01004 	mov	r1, r4
   13f88:	e0830000 	add	r0, r3, r0
   13f8c:	e50b31cc 	str	r3, [fp, #-460]	; 0xfffffe34
   13f90:	eb004c8a 	bl	271c0 <memcpy>
   13f94:	e51b41c4 	ldr	r4, [fp, #-452]	; 0xfffffe3c
   13f98:	e1a02009 	mov	r2, r9
   13f9c:	e51b91c8 	ldr	r9, [fp, #-456]	; 0xfffffe38
   13fa0:	e51b31cc 	ldr	r3, [fp, #-460]	; 0xfffffe34
   13fa4:	e7840009 	str	r0, [r4, r9]
   13fa8:	e51b01d0 	ldr	r0, [fp, #-464]	; 0xfffffe30
   13fac:	e1a01005 	mov	r1, r5
   13fb0:	e0830000 	add	r0, r3, r0
   13fb4:	eb004c81 	bl	271c0 <memcpy>
   13fb8:	e51b31d4 	ldr	r3, [fp, #-468]	; 0xfffffe2c
   13fbc:	e0849009 	add	r9, r4, r9
   13fc0:	e58a3008 	str	r3, [sl, #8]
   13fc4:	e51b31c0 	ldr	r3, [fp, #-448]	; 0xfffffe40
   13fc8:	e2877001 	add	r7, r7, #1
   13fcc:	e2833001 	add	r3, r3, #1
   13fd0:	e5890004 	str	r0, [r9, #4]
   13fd4:	e58a7000 	str	r7, [sl]
   13fd8:	e50b31c0 	str	r3, [fp, #-448]	; 0xfffffe40
   13fdc:	eaffff64 	b	13d74 <read_alias_file+0xe8>
   13fe0:	e59f20e8 	ldr	r2, [pc, #232]	; 140d0 <read_alias_file+0x444>
   13fe4:	e59f30ec 	ldr	r3, [pc, #236]	; 140d8 <read_alias_file+0x44c>
   13fe8:	e5921000 	ldr	r1, [r2]
   13fec:	e5930000 	ldr	r0, [r3]
   13ff0:	e3a02008 	mov	r2, #8
   13ff4:	e59f30e0 	ldr	r3, [pc, #224]	; 140dc <read_alias_file+0x450>
   13ff8:	eb0007f2 	bl	15fc8 <qsort>
   13ffc:	eaffff66 	b	13d9c <read_alias_file+0x110>
   14000:	e3a03000 	mov	r3, #0
   14004:	e59a7000 	ldr	r7, [sl]
   14008:	e5c13000 	strb	r3, [r1]
   1400c:	e59a3004 	ldr	r3, [sl, #4]
   14010:	e1570003 	cmp	r7, r3
   14014:	3affff9d 	bcc	13e90 <read_alias_file+0x204>
   14018:	e3530000 	cmp	r3, #0
   1401c:	11a09083 	lslne	r9, r3, #1
   14020:	11a01203 	lslne	r1, r3, #4
   14024:	e59f30ac 	ldr	r3, [pc, #172]	; 140d8 <read_alias_file+0x44c>
   14028:	03a01e32 	moveq	r1, #800	; 0x320
   1402c:	e5930000 	ldr	r0, [r3]
   14030:	03a09064 	moveq	r9, #100	; 0x64
   14034:	eb004217 	bl	24898 <__libc_realloc>
   14038:	e3500000 	cmp	r0, #0
   1403c:	0affff51 	beq	13d88 <read_alias_file+0xfc>
   14040:	e59f3090 	ldr	r3, [pc, #144]	; 140d8 <read_alias_file+0x44c>
   14044:	e58a9004 	str	r9, [sl, #4]
   14048:	e5830000 	str	r0, [r3]
   1404c:	eaffff8f 	b	13e90 <read_alias_file+0x204>
   14050:	e3570000 	cmp	r7, #0
   14054:	050b71c8 	streq	r7, [fp, #-456]	; 0xfffffe38
   14058:	0affffb3 	beq	13f2c <read_alias_file+0x2a0>
   1405c:	e51bc1c4 	ldr	ip, [fp, #-452]	; 0xfffffe3c
   14060:	e1a0e187 	lsl	lr, r7, #3
   14064:	e1a0100c 	mov	r1, ip
   14068:	e1a0c187 	lsl	ip, r7, #3
   1406c:	e081c00c 	add	ip, r1, ip
   14070:	e50be1c8 	str	lr, [fp, #-456]	; 0xfffffe38
   14074:	e50bc1dc 	str	ip, [fp, #-476]	; 0xfffffe24
   14078:	e040e003 	sub	lr, r0, r3
   1407c:	e2813004 	add	r3, r1, #4
   14080:	e513c004 	ldr	ip, [r3, #-4]
   14084:	e2811008 	add	r1, r1, #8
   14088:	e08cc00e 	add	ip, ip, lr
   1408c:	e503c004 	str	ip, [r3, #-4]
   14090:	e511c004 	ldr	ip, [r1, #-4]
   14094:	e2833008 	add	r3, r3, #8
   14098:	e08cc00e 	add	ip, ip, lr
   1409c:	e501c004 	str	ip, [r1, #-4]
   140a0:	e51bc1dc 	ldr	ip, [fp, #-476]	; 0xfffffe24
   140a4:	e15c0001 	cmp	ip, r1
   140a8:	1afffff4 	bne	14080 <read_alias_file+0x3f4>
   140ac:	eaffff9e 	b	13f2c <read_alias_file+0x2a0>
   140b0:	eb000ca3 	bl	17344 <_IO_new_fclose>
   140b4:	e3a03000 	mov	r3, #0
   140b8:	e50b31c0 	str	r3, [fp, #-448]	; 0xfffffe40
   140bc:	eaffff36 	b	13d9c <read_alias_file+0x110>
   140c0:	eb005a78 	bl	2aaa8 <__stack_chk_fail>
   140c4:	00085b98 	.word	0x00085b98
   140c8:	00060cd0 	.word	0x00060cd0
   140cc:	00060ccc 	.word	0x00060ccc
   140d0:	00087190 	.word	0x00087190
   140d4:	00072318 	.word	0x00072318
   140d8:	0008798c 	.word	0x0008798c
   140dc:	00013c78 	.word	0x00013c78

000140e0 <_nl_expand_alias>:
   140e0:	e92d4ff8 	push	{r3, r4, r5, r6, r7, r8, r9, sl, fp, lr}
   140e4:	e3a01001 	mov	r1, #1
   140e8:	e1a06000 	mov	r6, r0
   140ec:	e59f21b4 	ldr	r2, [pc, #436]	; 142a8 <_nl_expand_alias+0x1c8>
   140f0:	e3a04000 	mov	r4, #0
   140f4:	e5923000 	ldr	r3, [r2]
   140f8:	e1530004 	cmp	r3, r4
   140fc:	1a000005 	bne	14118 <_nl_expand_alias+0x38>
   14100:	e1a00004 	mov	r0, r4
   14104:	e3e03a0f 	mvn	r3, #61440	; 0xf000
   14108:	e1a0e00f 	mov	lr, pc
   1410c:	e243f03f 	sub	pc, r3, #63	; 0x3f
   14110:	3afffff7 	bcc	140f4 <_nl_expand_alias+0x14>
   14114:	e1a03004 	mov	r3, r4
   14118:	e1530004 	cmp	r3, r4
   1411c:	1a000056 	bne	1427c <_nl_expand_alias+0x19c>
   14120:	e59f5184 	ldr	r5, [pc, #388]	; 142ac <_nl_expand_alias+0x1cc>
   14124:	e59f7184 	ldr	r7, [pc, #388]	; 142b0 <_nl_expand_alias+0x1d0>
   14128:	e5953014 	ldr	r3, [r5, #20]
   1412c:	e5959000 	ldr	r9, [r5]
   14130:	e3530000 	cmp	r3, #0
   14134:	059f3178 	ldreq	r3, [pc, #376]	; 142b4 <_nl_expand_alias+0x1d4>
   14138:	e59f4178 	ldr	r4, [pc, #376]	; 142b8 <_nl_expand_alias+0x1d8>
   1413c:	05853014 	streq	r3, [r5, #20]
   14140:	e3590000 	cmp	r9, #0
   14144:	1a000038 	bne	1422c <_nl_expand_alias+0x14c>
   14148:	e5950014 	ldr	r0, [r5, #20]
   1414c:	e3a02000 	mov	r2, #0
   14150:	e5d03000 	ldrb	r3, [r0]
   14154:	e3530000 	cmp	r3, #0
   14158:	0a000012 	beq	141a8 <_nl_expand_alias+0xc8>
   1415c:	e353003a 	cmp	r3, #58	; 0x3a
   14160:	1a000004 	bne	14178 <_nl_expand_alias+0x98>
   14164:	e5f03001 	ldrb	r3, [r0, #1]!
   14168:	e353003a 	cmp	r3, #58	; 0x3a
   1416c:	0afffffc 	beq	14164 <_nl_expand_alias+0x84>
   14170:	e3530000 	cmp	r3, #0
   14174:	0a000022 	beq	14204 <_nl_expand_alias+0x124>
   14178:	e1a02000 	mov	r2, r0
   1417c:	e5f23001 	ldrb	r3, [r2, #1]!
   14180:	e3530000 	cmp	r3, #0
   14184:	1353003a 	cmpne	r3, #58	; 0x3a
   14188:	1afffffb 	bne	1417c <_nl_expand_alias+0x9c>
   1418c:	e1520000 	cmp	r2, r0
   14190:	8a00001d 	bhi	1420c <_nl_expand_alias+0x12c>
   14194:	e1a00002 	mov	r0, r2
   14198:	e5d03000 	ldrb	r3, [r0]
   1419c:	e3a02001 	mov	r2, #1
   141a0:	e3530000 	cmp	r3, #0
   141a4:	1affffec 	bne	1415c <_nl_expand_alias+0x7c>
   141a8:	e3a06000 	mov	r6, #0
   141ac:	e3520000 	cmp	r2, #0
   141b0:	15850014 	strne	r0, [r5, #20]
   141b4:	e59f80ec 	ldr	r8, [pc, #236]	; 142a8 <_nl_expand_alias+0x1c8>
   141b8:	e5957010 	ldr	r7, [r5, #16]
   141bc:	e3a01000 	mov	r1, #0
   141c0:	e1a04007 	mov	r4, r7
   141c4:	e1a02008 	mov	r2, r8
   141c8:	e5923000 	ldr	r3, [r2]
   141cc:	e1530004 	cmp	r3, r4
   141d0:	1a000005 	bne	141ec <_nl_expand_alias+0x10c>
   141d4:	e1a00004 	mov	r0, r4
   141d8:	e3e03a0f 	mvn	r3, #61440	; 0xf000
   141dc:	e1a0e00f 	mov	lr, pc
   141e0:	e243f03f 	sub	pc, r3, #63	; 0x3f
   141e4:	3afffff7 	bcc	141c8 <_nl_expand_alias+0xe8>
   141e8:	e1a03004 	mov	r3, r4
   141ec:	e1570003 	cmp	r7, r3
   141f0:	1afffff0 	bne	141b8 <_nl_expand_alias+0xd8>
   141f4:	e3570001 	cmp	r7, #1
   141f8:	ca000022 	bgt	14288 <_nl_expand_alias+0x1a8>
   141fc:	e1a00006 	mov	r0, r6
   14200:	e8bd8ff8 	pop	{r3, r4, r5, r6, r7, r8, r9, sl, fp, pc}
   14204:	e1a02000 	mov	r2, r0
   14208:	eaffffe1 	b	14194 <_nl_expand_alias+0xb4>
   1420c:	e0421000 	sub	r1, r2, r0
   14210:	e5852014 	str	r2, [r5, #20]
   14214:	ebfffe9c 	bl	13c8c <read_alias_file>
   14218:	e3500000 	cmp	r0, #0
   1421c:	0affffc9 	beq	14148 <_nl_expand_alias+0x68>
   14220:	e5959000 	ldr	r9, [r5]
   14224:	e3590000 	cmp	r9, #0
   14228:	0affffc6 	beq	14148 <_nl_expand_alias+0x68>
   1422c:	e3a0a000 	mov	sl, #0
   14230:	e597b000 	ldr	fp, [r7]
   14234:	ea000003 	b	14248 <_nl_expand_alias+0x168>
   14238:	0a00000d 	beq	14274 <_nl_expand_alias+0x194>
   1423c:	e288a001 	add	sl, r8, #1
   14240:	e159000a 	cmp	r9, sl
   14244:	9affffbf 	bls	14148 <_nl_expand_alias+0x68>
   14248:	e089800a 	add	r8, r9, sl
   1424c:	e1a080a8 	lsr	r8, r8, #1
   14250:	e79b1188 	ldr	r1, [fp, r8, lsl #3]
   14254:	e1a02004 	mov	r2, r4
   14258:	e1a00006 	mov	r0, r6
   1425c:	eb004bc7 	bl	27180 <__strcasecmp_l>
   14260:	e3500000 	cmp	r0, #0
   14264:	e08b3188 	add	r3, fp, r8, lsl #3
   14268:	aafffff2 	bge	14238 <_nl_expand_alias+0x158>
   1426c:	e1a09008 	mov	r9, r8
   14270:	eafffff2 	b	14240 <_nl_expand_alias+0x160>
   14274:	e5936004 	ldr	r6, [r3, #4]
   14278:	eaffffcd 	b	141b4 <_nl_expand_alias+0xd4>
   1427c:	e1a00002 	mov	r0, r2
   14280:	eb005985 	bl	2a89c <__lll_lock_wait_private>
   14284:	eaffffa5 	b	14120 <_nl_expand_alias+0x40>
   14288:	e1a00008 	mov	r0, r8
   1428c:	e3a01081 	mov	r1, #129	; 0x81
   14290:	e3a02001 	mov	r2, #1
   14294:	e3a03000 	mov	r3, #0
   14298:	e3a070f0 	mov	r7, #240	; 0xf0
   1429c:	ef000000 	svc	0x00000000
   142a0:	e1a00006 	mov	r0, r6
   142a4:	e8bd8ff8 	pop	{r3, r4, r5, r6, r7, r8, r9, sl, fp, pc}
   142a8:	000871a0 	.word	0x000871a0
   142ac:	00087190 	.word	0x00087190
   142b0:	0008798c 	.word	0x0008798c
   142b4:	00060c8c 	.word	0x00060c8c
   142b8:	0006faf8 	.word	0x0006faf8

000142bc <_nl_make_l10nflist>:
   142bc:	e92d4ff0 	push	{r4, r5, r6, r7, r8, r9, sl, fp, lr}
   142c0:	e24dd03c 	sub	sp, sp, #60	; 0x3c
   142c4:	e1a05003 	mov	r5, r3
   142c8:	e58d0028 	str	r0, [sp, #40]	; 0x28
   142cc:	e59d0060 	ldr	r0, [sp, #96]	; 0x60
   142d0:	e1a06002 	mov	r6, r2
   142d4:	e58d1024 	str	r1, [sp, #36]	; 0x24
   142d8:	eb0046bc 	bl	25dd0 <strlen>
   142dc:	e2158004 	ands	r8, r5, #4
   142e0:	e1a04000 	mov	r4, r0
   142e4:	e2869002 	add	r9, r6, #2
   142e8:	01a07008 	moveq	r7, r8
   142ec:	0a000002 	beq	142fc <_nl_make_l10nflist+0x40>
   142f0:	e59d0064 	ldr	r0, [sp, #100]	; 0x64
   142f4:	eb0046b5 	bl	25dd0 <strlen>
   142f8:	e2807001 	add	r7, r0, #1
   142fc:	e2153002 	ands	r3, r5, #2
   14300:	e58d302c 	str	r3, [sp, #44]	; 0x2c
   14304:	e0844009 	add	r4, r4, r9
   14308:	0a0000cd 	beq	14644 <_nl_make_l10nflist+0x388>
   1430c:	e59d0068 	ldr	r0, [sp, #104]	; 0x68
   14310:	eb0046ae 	bl	25dd0 <strlen>
   14314:	e2809001 	add	r9, r0, #1
   14318:	e2153001 	ands	r3, r5, #1
   1431c:	e58d3030 	str	r3, [sp, #48]	; 0x30
   14320:	e0877004 	add	r7, r7, r4
   14324:	0a0000c4 	beq	1463c <_nl_make_l10nflist+0x380>
   14328:	e59d006c 	ldr	r0, [sp, #108]	; 0x6c
   1432c:	eb0046a7 	bl	25dd0 <strlen>
   14330:	e2804001 	add	r4, r0, #1
   14334:	e2153008 	ands	r3, r5, #8
   14338:	e58d3034 	str	r3, [sp, #52]	; 0x34
   1433c:	e0897007 	add	r7, r9, r7
   14340:	0a0000bb 	beq	14634 <_nl_make_l10nflist+0x378>
   14344:	e59d0070 	ldr	r0, [sp, #112]	; 0x70
   14348:	eb0046a0 	bl	25dd0 <strlen>
   1434c:	e280a001 	add	sl, r0, #1
   14350:	e59d0074 	ldr	r0, [sp, #116]	; 0x74
   14354:	eb00469d 	bl	25dd0 <strlen>
   14358:	e1a09000 	mov	r9, r0
   1435c:	e0844007 	add	r4, r4, r7
   14360:	e084000a 	add	r0, r4, sl
   14364:	e0800009 	add	r0, r0, r9
   14368:	eb003f4f 	bl	240ac <__libc_malloc>
   1436c:	e2507000 	subs	r7, r0, #0
   14370:	0a000123 	beq	14804 <_nl_make_l10nflist+0x548>
   14374:	e1a02006 	mov	r2, r6
   14378:	e59d1024 	ldr	r1, [sp, #36]	; 0x24
   1437c:	eb004b8f 	bl	271c0 <memcpy>
   14380:	e3560000 	cmp	r6, #0
   14384:	0a00000a 	beq	143b4 <_nl_make_l10nflist+0xf8>
   14388:	e1a0b006 	mov	fp, r6
   1438c:	e1a0a007 	mov	sl, r7
   14390:	e3a0403a 	mov	r4, #58	; 0x3a
   14394:	e1a0000a 	mov	r0, sl
   14398:	eb00468c 	bl	25dd0 <strlen>
   1439c:	e1e03000 	mvn	r3, r0
   143a0:	e09bb003 	adds	fp, fp, r3
   143a4:	e08aa000 	add	sl, sl, r0
   143a8:	15ca4000 	strbne	r4, [sl]
   143ac:	128aa001 	addne	sl, sl, #1
   143b0:	1afffff7 	bne	14394 <_nl_make_l10nflist+0xd8>
   143b4:	e3a0302f 	mov	r3, #47	; 0x2f
   143b8:	e0870006 	add	r0, r7, r6
   143bc:	e5403001 	strb	r3, [r0, #-1]
   143c0:	e59d1060 	ldr	r1, [sp, #96]	; 0x60
   143c4:	eb004b61 	bl	27150 <__stpcpy>
   143c8:	e3580000 	cmp	r8, #0
   143cc:	e1a03000 	mov	r3, r0
   143d0:	1a0000dd 	bne	1474c <_nl_make_l10nflist+0x490>
   143d4:	e59d202c 	ldr	r2, [sp, #44]	; 0x2c
   143d8:	e2830001 	add	r0, r3, #1
   143dc:	e3520000 	cmp	r2, #0
   143e0:	1a0000c0 	bne	146e8 <_nl_make_l10nflist+0x42c>
   143e4:	e59d2030 	ldr	r2, [sp, #48]	; 0x30
   143e8:	e3520000 	cmp	r2, #0
   143ec:	1a0000c6 	bne	1470c <_nl_make_l10nflist+0x450>
   143f0:	e59d2034 	ldr	r2, [sp, #52]	; 0x34
   143f4:	e3520000 	cmp	r2, #0
   143f8:	1a0000cc 	bne	14730 <_nl_make_l10nflist+0x474>
   143fc:	e3a0102f 	mov	r1, #47	; 0x2f
   14400:	e2892001 	add	r2, r9, #1
   14404:	e5c31000 	strb	r1, [r3]
   14408:	e59d1074 	ldr	r1, [sp, #116]	; 0x74
   1440c:	eb004b6b 	bl	271c0 <memcpy>
   14410:	e59d3028 	ldr	r3, [sp, #40]	; 0x28
   14414:	e5933000 	ldr	r3, [r3]
   14418:	e3530000 	cmp	r3, #0
   1441c:	e58d302c 	str	r3, [sp, #44]	; 0x2c
   14420:	0a0000f9 	beq	1480c <_nl_make_l10nflist+0x550>
   14424:	e1a04003 	mov	r4, r3
   14428:	e3a09000 	mov	r9, #0
   1442c:	e5940000 	ldr	r0, [r4]
   14430:	e3500000 	cmp	r0, #0
   14434:	0a000005 	beq	14450 <_nl_make_l10nflist+0x194>
   14438:	e1a01007 	mov	r1, r7
   1443c:	eb0045e9 	bl	25be8 <strcmp>
   14440:	e3500000 	cmp	r0, #0
   14444:	0a0000c8 	beq	1476c <_nl_make_l10nflist+0x4b0>
   14448:	ba000003 	blt	1445c <_nl_make_l10nflist+0x1a0>
   1444c:	e1a09004 	mov	r9, r4
   14450:	e594400c 	ldr	r4, [r4, #12]
   14454:	e3540000 	cmp	r4, #0
   14458:	1afffff3 	bne	1442c <_nl_make_l10nflist+0x170>
   1445c:	e59d3078 	ldr	r3, [sp, #120]	; 0x78
   14460:	e3530000 	cmp	r3, #0
   14464:	0a0000bf 	beq	14768 <_nl_make_l10nflist+0x4ac>
   14468:	e59f23a4 	ldr	r2, [pc, #932]	; 14814 <_nl_make_l10nflist+0x558>
   1446c:	e59f33a4 	ldr	r3, [pc, #932]	; 14818 <_nl_make_l10nflist+0x55c>
   14470:	e00210c5 	and	r1, r2, r5, asr #1
   14474:	e59f03a0 	ldr	r0, [pc, #928]	; 1481c <_nl_make_l10nflist+0x560>
   14478:	e0052003 	and	r2, r5, r3
   1447c:	e59f339c 	ldr	r3, [pc, #924]	; 14820 <_nl_make_l10nflist+0x564>
   14480:	e0812002 	add	r2, r1, r2
   14484:	e0033142 	and	r3, r3, r2, asr #2
   14488:	e0022000 	and	r2, r2, r0
   1448c:	e0833002 	add	r3, r3, r2
   14490:	e59f438c 	ldr	r4, [pc, #908]	; 14824 <_nl_make_l10nflist+0x568>
   14494:	e0833243 	add	r3, r3, r3, asr #4
   14498:	e0044003 	and	r4, r4, r3
   1449c:	e0844424 	add	r4, r4, r4, lsr #8
   144a0:	e3560000 	cmp	r6, #0
   144a4:	e20440ff 	and	r4, r4, #255	; 0xff
   144a8:	0a0000cd 	beq	147e4 <_nl_make_l10nflist+0x528>
   144ac:	e1a08006 	mov	r8, r6
   144b0:	e3a0b000 	mov	fp, #0
   144b4:	e59da024 	ldr	sl, [sp, #36]	; 0x24
   144b8:	e1a0000a 	mov	r0, sl
   144bc:	eb004643 	bl	25dd0 <strlen>
   144c0:	e1e03000 	mvn	r3, r0
   144c4:	e2800001 	add	r0, r0, #1
   144c8:	e0988003 	adds	r8, r8, r3
   144cc:	e28bb001 	add	fp, fp, #1
   144d0:	e08aa000 	add	sl, sl, r0
   144d4:	1afffff7 	bne	144b8 <_nl_make_l10nflist+0x1fc>
   144d8:	e1a0008b 	lsl	r0, fp, #1
   144dc:	e1a00410 	lsl	r0, r0, r4
   144e0:	e2800005 	add	r0, r0, #5
   144e4:	e1a00100 	lsl	r0, r0, #2
   144e8:	eb003eef 	bl	240ac <__libc_malloc>
   144ec:	e2504000 	subs	r4, r0, #0
   144f0:	0a0000c1 	beq	147fc <_nl_make_l10nflist+0x540>
   144f4:	e1a0a006 	mov	sl, r6
   144f8:	e59db024 	ldr	fp, [sp, #36]	; 0x24
   144fc:	e5847000 	str	r7, [r4]
   14500:	e1a0000b 	mov	r0, fp
   14504:	eb004631 	bl	25dd0 <strlen>
   14508:	e1e03000 	mvn	r3, r0
   1450c:	e2800001 	add	r0, r0, #1
   14510:	e09aa003 	adds	sl, sl, r3
   14514:	e2888001 	add	r8, r8, #1
   14518:	e08bb000 	add	fp, fp, r0
   1451c:	1afffff7 	bne	14500 <_nl_make_l10nflist+0x244>
   14520:	e3580001 	cmp	r8, #1
   14524:	02053003 	andeq	r3, r5, #3
   14528:	02433003 	subeq	r3, r3, #3
   1452c:	016f3f13 	clzeq	r3, r3
   14530:	13a03001 	movne	r3, #1
   14534:	01a032a3 	lsreq	r3, r3, #5
   14538:	e3a02000 	mov	r2, #0
   1453c:	e1590002 	cmp	r9, r2
   14540:	e5843004 	str	r3, [r4, #4]
   14544:	059d302c 	ldreq	r3, [sp, #44]	; 0x2c
   14548:	1599300c 	ldrne	r3, [r9, #12]
   1454c:	0584300c 	streq	r3, [r4, #12]
   14550:	059d3028 	ldreq	r3, [sp, #40]	; 0x28
   14554:	1584300c 	strne	r3, [r4, #12]
   14558:	e5842008 	str	r2, [r4, #8]
   1455c:	05834000 	streq	r4, [r3]
   14560:	1589400c 	strne	r4, [r9, #12]
   14564:	e3560000 	cmp	r6, #0
   14568:	0a00000d 	beq	145a4 <_nl_make_l10nflist+0x2e8>
   1456c:	e1a08006 	mov	r8, r6
   14570:	e3a09000 	mov	r9, #0
   14574:	e59d7024 	ldr	r7, [sp, #36]	; 0x24
   14578:	e1a00007 	mov	r0, r7
   1457c:	eb004613 	bl	25dd0 <strlen>
   14580:	e1e03000 	mvn	r3, r0
   14584:	e2800001 	add	r0, r0, #1
   14588:	e0988003 	adds	r8, r8, r3
   1458c:	e2899001 	add	r9, r9, #1
   14590:	e0877000 	add	r7, r7, r0
   14594:	1afffff7 	bne	14578 <_nl_make_l10nflist+0x2bc>
   14598:	e3590001 	cmp	r9, #1
   1459c:	02457001 	subeq	r7, r5, #1
   145a0:	0a000000 	beq	145a8 <_nl_make_l10nflist+0x2ec>
   145a4:	e1a07005 	mov	r7, r5
   145a8:	e3570000 	cmp	r7, #0
   145ac:	ba000073 	blt	14780 <_nl_make_l10nflist+0x4c4>
   145b0:	e59d3024 	ldr	r3, [sp, #36]	; 0x24
   145b4:	e58d602c 	str	r6, [sp, #44]	; 0x2c
   145b8:	e0833006 	add	r3, r3, r6
   145bc:	e1e0a005 	mvn	sl, r5
   145c0:	e3a09000 	mov	r9, #0
   145c4:	e1a06003 	mov	r6, r3
   145c8:	e017800a 	ands	r8, r7, sl
   145cc:	0289b004 	addeq	fp, r9, #4
   145d0:	0084b10b 	addeq	fp, r4, fp, lsl #2
   145d4:	0a00003c 	beq	146cc <_nl_make_l10nflist+0x410>
   145d8:	e2577001 	subs	r7, r7, #1
   145dc:	2afffff9 	bcs	145c8 <_nl_make_l10nflist+0x30c>
   145e0:	e3a0200b 	mov	r2, #11
   145e4:	e59f123c 	ldr	r1, [pc, #572]	; 14828 <_nl_make_l10nflist+0x56c>
   145e8:	e59d0074 	ldr	r0, [sp, #116]	; 0x74
   145ec:	eb00460f 	bl	25e30 <strncmp>
   145f0:	e3500000 	cmp	r0, #0
   145f4:	1a000008 	bne	1461c <_nl_make_l10nflist+0x360>
   145f8:	e3550000 	cmp	r5, #0
   145fc:	ba000006 	blt	1461c <_nl_make_l10nflist+0x360>
   14600:	e1e06005 	mvn	r6, r5
   14604:	e3a08001 	mov	r8, #1
   14608:	e59f721c 	ldr	r7, [pc, #540]	; 1482c <_nl_make_l10nflist+0x570>
   1460c:	e1150006 	tst	r5, r6
   14610:	0a00005c 	beq	14788 <_nl_make_l10nflist+0x4cc>
   14614:	e2555001 	subs	r5, r5, #1
   14618:	2afffffb 	bcs	1460c <_nl_make_l10nflist+0x350>
   1461c:	e3a03000 	mov	r3, #0
   14620:	e2899004 	add	r9, r9, #4
   14624:	e7843109 	str	r3, [r4, r9, lsl #2]
   14628:	e1a00004 	mov	r0, r4
   1462c:	e28dd03c 	add	sp, sp, #60	; 0x3c
   14630:	e8bd8ff0 	pop	{r4, r5, r6, r7, r8, r9, sl, fp, pc}
   14634:	e215a008 	ands	sl, r5, #8
   14638:	eaffff44 	b	14350 <_nl_make_l10nflist+0x94>
   1463c:	e2154001 	ands	r4, r5, #1
   14640:	eaffff3b 	b	14334 <_nl_make_l10nflist+0x78>
   14644:	e2159002 	ands	r9, r5, #2
   14648:	eaffff32 	b	14318 <_nl_make_l10nflist+0x5c>
   1464c:	e1580006 	cmp	r8, r6
   14650:	2affffe0 	bcs	145d8 <_nl_make_l10nflist+0x31c>
   14654:	e1a00008 	mov	r0, r8
   14658:	eb0045dc 	bl	25dd0 <strlen>
   1465c:	e2800001 	add	r0, r0, #1
   14660:	e0888000 	add	r8, r8, r0
   14664:	e3580000 	cmp	r8, #0
   14668:	11580006 	cmpne	r8, r6
   1466c:	2affffd9 	bcs	145d8 <_nl_make_l10nflist+0x31c>
   14670:	e1a00008 	mov	r0, r8
   14674:	eb0045d5 	bl	25dd0 <strlen>
   14678:	e3a03001 	mov	r3, #1
   1467c:	e0802003 	add	r2, r0, r3
   14680:	e58d3018 	str	r3, [sp, #24]
   14684:	e59d3074 	ldr	r3, [sp, #116]	; 0x74
   14688:	e1a01008 	mov	r1, r8
   1468c:	e58d3014 	str	r3, [sp, #20]
   14690:	e59d3070 	ldr	r3, [sp, #112]	; 0x70
   14694:	e59d0028 	ldr	r0, [sp, #40]	; 0x28
   14698:	e58d3010 	str	r3, [sp, #16]
   1469c:	e59d306c 	ldr	r3, [sp, #108]	; 0x6c
   146a0:	e2899001 	add	r9, r9, #1
   146a4:	e58d300c 	str	r3, [sp, #12]
   146a8:	e59d3068 	ldr	r3, [sp, #104]	; 0x68
   146ac:	e58d3008 	str	r3, [sp, #8]
   146b0:	e59d3064 	ldr	r3, [sp, #100]	; 0x64
   146b4:	e58d3004 	str	r3, [sp, #4]
   146b8:	e59d3060 	ldr	r3, [sp, #96]	; 0x60
   146bc:	e58d3000 	str	r3, [sp]
   146c0:	e1a03007 	mov	r3, r7
   146c4:	ebfffefc 	bl	142bc <_nl_make_l10nflist>
   146c8:	e48b0004 	str	r0, [fp], #4
   146cc:	e3580000 	cmp	r8, #0
   146d0:	1affffdd 	bne	1464c <_nl_make_l10nflist+0x390>
   146d4:	e59d302c 	ldr	r3, [sp, #44]	; 0x2c
   146d8:	e3530000 	cmp	r3, #0
   146dc:	0affffbd 	beq	145d8 <_nl_make_l10nflist+0x31c>
   146e0:	e59d8024 	ldr	r8, [sp, #36]	; 0x24
   146e4:	eaffffe1 	b	14670 <_nl_make_l10nflist+0x3b4>
   146e8:	e3a0202e 	mov	r2, #46	; 0x2e
   146ec:	e59d1068 	ldr	r1, [sp, #104]	; 0x68
   146f0:	e5c32000 	strb	r2, [r3]
   146f4:	eb004a95 	bl	27150 <__stpcpy>
   146f8:	e59d2030 	ldr	r2, [sp, #48]	; 0x30
   146fc:	e1a03000 	mov	r3, r0
   14700:	e3520000 	cmp	r2, #0
   14704:	e2800001 	add	r0, r0, #1
   14708:	0affff38 	beq	143f0 <_nl_make_l10nflist+0x134>
   1470c:	e3a0202e 	mov	r2, #46	; 0x2e
   14710:	e59d106c 	ldr	r1, [sp, #108]	; 0x6c
   14714:	e5c32000 	strb	r2, [r3]
   14718:	eb004a8c 	bl	27150 <__stpcpy>
   1471c:	e59d2034 	ldr	r2, [sp, #52]	; 0x34
   14720:	e1a03000 	mov	r3, r0
   14724:	e3520000 	cmp	r2, #0
   14728:	e2800001 	add	r0, r0, #1
   1472c:	0affff32 	beq	143fc <_nl_make_l10nflist+0x140>
   14730:	e3a02040 	mov	r2, #64	; 0x40
   14734:	e59d1070 	ldr	r1, [sp, #112]	; 0x70
   14738:	e5c32000 	strb	r2, [r3]
   1473c:	eb004a83 	bl	27150 <__stpcpy>
   14740:	e1a03000 	mov	r3, r0
   14744:	e2800001 	add	r0, r0, #1
   14748:	eaffff2b 	b	143fc <_nl_make_l10nflist+0x140>
   1474c:	e3a0205f 	mov	r2, #95	; 0x5f
   14750:	e2800001 	add	r0, r0, #1
   14754:	e5402001 	strb	r2, [r0, #-1]
   14758:	e59d1064 	ldr	r1, [sp, #100]	; 0x64
   1475c:	eb004a7b 	bl	27150 <__stpcpy>
   14760:	e1a03000 	mov	r3, r0
   14764:	eaffff1a 	b	143d4 <_nl_make_l10nflist+0x118>
   14768:	e59d4078 	ldr	r4, [sp, #120]	; 0x78
   1476c:	e1a00007 	mov	r0, r7
   14770:	eb004009 	bl	2479c <__free>
   14774:	e1a00004 	mov	r0, r4
   14778:	e28dd03c 	add	sp, sp, #60	; 0x3c
   1477c:	e8bd8ff0 	pop	{r4, r5, r6, r7, r8, r9, sl, fp, pc}
   14780:	e3a09000 	mov	r9, #0
   14784:	eaffff95 	b	145e0 <_nl_make_l10nflist+0x324>
   14788:	e59d3074 	ldr	r3, [sp, #116]	; 0x74
   1478c:	e3a0201b 	mov	r2, #27
   14790:	e58d3014 	str	r3, [sp, #20]
   14794:	e59d3070 	ldr	r3, [sp, #112]	; 0x70
   14798:	e58d8018 	str	r8, [sp, #24]
   1479c:	e58d3010 	str	r3, [sp, #16]
   147a0:	e59d306c 	ldr	r3, [sp, #108]	; 0x6c
   147a4:	e1a01007 	mov	r1, r7
   147a8:	e58d300c 	str	r3, [sp, #12]
   147ac:	e59d3068 	ldr	r3, [sp, #104]	; 0x68
   147b0:	e59d0028 	ldr	r0, [sp, #40]	; 0x28
   147b4:	e58d3008 	str	r3, [sp, #8]
   147b8:	e59d3064 	ldr	r3, [sp, #100]	; 0x64
   147bc:	e58d3004 	str	r3, [sp, #4]
   147c0:	e59d3060 	ldr	r3, [sp, #96]	; 0x60
   147c4:	e58d3000 	str	r3, [sp]
   147c8:	e1a03005 	mov	r3, r5
   147cc:	ebfffeba 	bl	142bc <_nl_make_l10nflist>
   147d0:	e2893004 	add	r3, r9, #4
   147d4:	e2892001 	add	r2, r9, #1
   147d8:	e1a09002 	mov	r9, r2
   147dc:	e7840103 	str	r0, [r4, r3, lsl #2]
   147e0:	eaffff8b 	b	14614 <_nl_make_l10nflist+0x358>
   147e4:	e3a00014 	mov	r0, #20
   147e8:	eb003e2f 	bl	240ac <__libc_malloc>
   147ec:	e2504000 	subs	r4, r0, #0
   147f0:	15847000 	strne	r7, [r4]
   147f4:	13a03001 	movne	r3, #1
   147f8:	1affff4e 	bne	14538 <_nl_make_l10nflist+0x27c>
   147fc:	e1a00007 	mov	r0, r7
   14800:	eb003fe5 	bl	2479c <__free>
   14804:	e3a04000 	mov	r4, #0
   14808:	eaffff86 	b	14628 <_nl_make_l10nflist+0x36c>
   1480c:	e59d902c 	ldr	r9, [sp, #44]	; 0x2c
   14810:	eaffff11 	b	1445c <_nl_make_l10nflist+0x1a0>
   14814:	ffffd555 	.word	0xffffd555
   14818:	00005555 	.word	0x00005555
   1481c:	00003333 	.word	0x00003333
   14820:	fffff333 	.word	0xfffff333
   14824:	00000f0f 	.word	0x00000f0f
   14828:	00060ce0 	.word	0x00060ce0
   1482c:	00060cec 	.word	0x00060cec

00014830 <_nl_normalize_codeset>:
   14830:	e92d41f0 	push	{r4, r5, r6, r7, r8, lr}
   14834:	e2515000 	subs	r5, r1, #0
   14838:	0a00003c 	beq	14930 <_nl_normalize_codeset+0x100>
   1483c:	e2407001 	sub	r7, r0, #1
   14840:	e1a02007 	mov	r2, r7
   14844:	e3a01001 	mov	r1, #1
   14848:	e3a00000 	mov	r0, #0
   1484c:	e59f60fc 	ldr	r6, [pc, #252]	; 14950 <_nl_normalize_codeset+0x120>
   14850:	e087e005 	add	lr, r7, r5
   14854:	e5964034 	ldr	r4, [r6, #52]	; 0x34
   14858:	e5f23001 	ldrb	r3, [r2, #1]!
   1485c:	e1a0c083 	lsl	ip, r3, #1
   14860:	e194c0bc 	ldrh	ip, [r4, ip]
   14864:	e2433030 	sub	r3, r3, #48	; 0x30
   14868:	e31c0008 	tst	ip, #8
   1486c:	0a000002 	beq	1487c <_nl_normalize_codeset+0x4c>
   14870:	e353000a 	cmp	r3, #10
   14874:	23a01000 	movcs	r1, #0
   14878:	e2800001 	add	r0, r0, #1
   1487c:	e15e0002 	cmp	lr, r2
   14880:	1afffff4 	bne	14858 <_nl_normalize_codeset+0x28>
   14884:	e3510000 	cmp	r1, #0
   14888:	1a00001d 	bne	14904 <_nl_normalize_codeset+0xd4>
   1488c:	e2800001 	add	r0, r0, #1
   14890:	eb003e05 	bl	240ac <__libc_malloc>
   14894:	e250c000 	subs	ip, r0, #0
   14898:	11a0000c 	movne	r0, ip
   1489c:	0a00001c 	beq	14914 <_nl_normalize_codeset+0xe4>
   148a0:	e1a0e007 	mov	lr, r7
   148a4:	e3a02000 	mov	r2, #0
   148a8:	e5967038 	ldr	r7, [r6, #56]	; 0x38
   148ac:	ea000005 	b	148c8 <_nl_normalize_codeset+0x98>
   148b0:	e7973103 	ldr	r3, [r7, r3, lsl #2]
   148b4:	e2822001 	add	r2, r2, #1
   148b8:	e1550002 	cmp	r5, r2
   148bc:	e5cc3000 	strb	r3, [ip]
   148c0:	e28cc001 	add	ip, ip, #1
   148c4:	9a00000b 	bls	148f8 <_nl_normalize_codeset+0xc8>
   148c8:	e5fe3001 	ldrb	r3, [lr, #1]!
   148cc:	e1a01083 	lsl	r1, r3, #1
   148d0:	e19410b1 	ldrh	r1, [r4, r1]
   148d4:	e2436030 	sub	r6, r3, #48	; 0x30
   148d8:	e3110b01 	tst	r1, #1024	; 0x400
   148dc:	1afffff3 	bne	148b0 <_nl_normalize_codeset+0x80>
   148e0:	e3560009 	cmp	r6, #9
   148e4:	e2822001 	add	r2, r2, #1
   148e8:	95cc3000 	strbls	r3, [ip]
   148ec:	928cc001 	addls	ip, ip, #1
   148f0:	e1550002 	cmp	r5, r2
   148f4:	8afffff3 	bhi	148c8 <_nl_normalize_codeset+0x98>
   148f8:	e3a03000 	mov	r3, #0
   148fc:	e5cc3000 	strb	r3, [ip]
   14900:	e8bd81f0 	pop	{r4, r5, r6, r7, r8, pc}
   14904:	e2800004 	add	r0, r0, #4
   14908:	eb003de7 	bl	240ac <__libc_malloc>
   1490c:	e3500000 	cmp	r0, #0
   14910:	1a000001 	bne	1491c <_nl_normalize_codeset+0xec>
   14914:	e3a00000 	mov	r0, #0
   14918:	e8bd81f0 	pop	{r4, r5, r6, r7, r8, pc}
   1491c:	e1a0c000 	mov	ip, r0
   14920:	e59f302c 	ldr	r3, [pc, #44]	; 14954 <_nl_normalize_codeset+0x124>
   14924:	e5964034 	ldr	r4, [r6, #52]	; 0x34
   14928:	e48c3003 	str	r3, [ip], #3
   1492c:	eaffffdb 	b	148a0 <_nl_normalize_codeset+0x70>
   14930:	e3a00004 	mov	r0, #4
   14934:	eb003ddc 	bl	240ac <__libc_malloc>
   14938:	e3500000 	cmp	r0, #0
   1493c:	0afffff4 	beq	14914 <_nl_normalize_codeset+0xe4>
   14940:	e1a0c000 	mov	ip, r0
   14944:	e59f3008 	ldr	r3, [pc, #8]	; 14954 <_nl_normalize_codeset+0x124>
   14948:	e48c3003 	str	r3, [ip], #3
   1494c:	eaffffe9 	b	148f8 <_nl_normalize_codeset+0xc8>
   14950:	0006faf8 	.word	0x0006faf8
   14954:	006f7369 	.word	0x006f7369

00014958 <_nl_explode_name>:
   14958:	e92d4ff8 	push	{r3, r4, r5, r6, r7, r8, r9, sl, fp, lr}
   1495c:	e1a08003 	mov	r8, r3
   14960:	e3a03000 	mov	r3, #0
   14964:	e1a07002 	mov	r7, r2
   14968:	e5823000 	str	r3, [r2]
   1496c:	e59d5028 	ldr	r5, [sp, #40]	; 0x28
   14970:	e59d202c 	ldr	r2, [sp, #44]	; 0x2c
   14974:	e5883000 	str	r3, [r8]
   14978:	e5853000 	str	r3, [r5]
   1497c:	e5823000 	str	r3, [r2]
   14980:	e5810000 	str	r0, [r1]
   14984:	e5d03000 	ldrb	r3, [r0]
   14988:	e1a09000 	mov	r9, r0
   1498c:	e20320bf 	and	r2, r3, #191	; 0xbf
   14990:	e353005f 	cmp	r3, #95	; 0x5f
   14994:	13520000 	cmpne	r2, #0
   14998:	0a00002c 	beq	14a50 <_nl_explode_name+0xf8>
   1499c:	e353002e 	cmp	r3, #46	; 0x2e
   149a0:	0a00002a 	beq	14a50 <_nl_explode_name+0xf8>
   149a4:	e1a0c000 	mov	ip, r0
   149a8:	e5dc1001 	ldrb	r1, [ip, #1]
   149ac:	e28c4001 	add	r4, ip, #1
   149b0:	e251005f 	subs	r0, r1, #95	; 0x5f
   149b4:	13a00001 	movne	r0, #1
   149b8:	e3510000 	cmp	r1, #0
   149bc:	03a00000 	moveq	r0, #0
   149c0:	e3500000 	cmp	r0, #0
   149c4:	0a000027 	beq	14a68 <_nl_explode_name+0x110>
   149c8:	e351002e 	cmp	r1, #46	; 0x2e
   149cc:	13510040 	cmpne	r1, #64	; 0x40
   149d0:	e1a0c004 	mov	ip, r4
   149d4:	13a00001 	movne	r0, #1
   149d8:	03a00000 	moveq	r0, #0
   149dc:	1afffff1 	bne	149a8 <_nl_explode_name+0x50>
   149e0:	e1590004 	cmp	r9, r4
   149e4:	0a000019 	beq	14a50 <_nl_explode_name+0xf8>
   149e8:	e351002e 	cmp	r1, #46	; 0x2e
   149ec:	e1a09000 	mov	r9, r0
   149f0:	0a000031 	beq	14abc <_nl_explode_name+0x164>
   149f4:	e3510040 	cmp	r1, #64	; 0x40
   149f8:	1a000006 	bne	14a18 <_nl_explode_name+0xc0>
   149fc:	e1a03004 	mov	r3, r4
   14a00:	e3a02000 	mov	r2, #0
   14a04:	e4c32001 	strb	r2, [r3], #1
   14a08:	e5873000 	str	r3, [r7]
   14a0c:	e5d43001 	ldrb	r3, [r4, #1]
   14a10:	e1530002 	cmp	r3, r2
   14a14:	13899008 	orrne	r9, r9, #8
   14a18:	e5983000 	ldr	r3, [r8]
   14a1c:	e3530000 	cmp	r3, #0
   14a20:	0a000002 	beq	14a30 <_nl_explode_name+0xd8>
   14a24:	e5d33000 	ldrb	r3, [r3]
   14a28:	e3530000 	cmp	r3, #0
   14a2c:	03c99004 	biceq	r9, r9, #4
   14a30:	e5953000 	ldr	r3, [r5]
   14a34:	e3530000 	cmp	r3, #0
   14a38:	0a000002 	beq	14a48 <_nl_explode_name+0xf0>
   14a3c:	e5d33000 	ldrb	r3, [r3]
   14a40:	e3530000 	cmp	r3, #0
   14a44:	03c99002 	biceq	r9, r9, #2
   14a48:	e1a00009 	mov	r0, r9
   14a4c:	e8bd8ff8 	pop	{r3, r4, r5, r6, r7, r8, r9, sl, fp, pc}
   14a50:	e1a00009 	mov	r0, r9
   14a54:	eb0044dd 	bl	25dd0 <strlen>
   14a58:	e0894000 	add	r4, r9, r0
   14a5c:	e7d91000 	ldrb	r1, [r9, r0]
   14a60:	e3a09000 	mov	r9, #0
   14a64:	eaffffe2 	b	149f4 <_nl_explode_name+0x9c>
   14a68:	e1590004 	cmp	r9, r4
   14a6c:	0afffff7 	beq	14a50 <_nl_explode_name+0xf8>
   14a70:	e351005f 	cmp	r1, #95	; 0x5f
   14a74:	1affffdb 	bne	149e8 <_nl_explode_name+0x90>
   14a78:	e28cc002 	add	ip, ip, #2
   14a7c:	e5c40000 	strb	r0, [r4]
   14a80:	e588c000 	str	ip, [r8]
   14a84:	e5d41001 	ldrb	r1, [r4, #1]
   14a88:	e1a0400c 	mov	r4, ip
   14a8c:	e20130bf 	and	r3, r1, #191	; 0xbf
   14a90:	e351002e 	cmp	r1, #46	; 0x2e
   14a94:	13530000 	cmpne	r3, #0
   14a98:	0a000004 	beq	14ab0 <_nl_explode_name+0x158>
   14a9c:	e5f41001 	ldrb	r1, [r4, #1]!
   14aa0:	e20130bf 	and	r3, r1, #191	; 0xbf
   14aa4:	e351002e 	cmp	r1, #46	; 0x2e
   14aa8:	13530000 	cmpne	r3, #0
   14aac:	1afffffa 	bne	14a9c <_nl_explode_name+0x144>
   14ab0:	e351002e 	cmp	r1, #46	; 0x2e
   14ab4:	e3a09004 	mov	r9, #4
   14ab8:	1affffcd 	bne	149f4 <_nl_explode_name+0x9c>
   14abc:	e1a00004 	mov	r0, r4
   14ac0:	e3a03000 	mov	r3, #0
   14ac4:	e4c03001 	strb	r3, [r0], #1
   14ac8:	e5850000 	str	r0, [r5]
   14acc:	e5d41001 	ldrb	r1, [r4, #1]
   14ad0:	e389b002 	orr	fp, r9, #2
   14ad4:	e31100bf 	tst	r1, #191	; 0xbf
   14ad8:	11a0a000 	movne	sl, r0
   14adc:	1a000001 	bne	14ae8 <_nl_explode_name+0x190>
   14ae0:	ea00001c 	b	14b58 <_nl_explode_name+0x200>
   14ae4:	e1a0a004 	mov	sl, r4
   14ae8:	e5da3001 	ldrb	r3, [sl, #1]
   14aec:	e28a4001 	add	r4, sl, #1
   14af0:	e31300bf 	tst	r3, #191	; 0xbf
   14af4:	1afffffa 	bne	14ae4 <_nl_explode_name+0x18c>
   14af8:	e1500004 	cmp	r0, r4
   14afc:	0a00000e 	beq	14b3c <_nl_explode_name+0x1e4>
   14b00:	e0441000 	sub	r1, r4, r0
   14b04:	ebffff49 	bl	14830 <_nl_normalize_codeset>
   14b08:	e59d302c 	ldr	r3, [sp, #44]	; 0x2c
   14b0c:	e3500000 	cmp	r0, #0
   14b10:	e1a06000 	mov	r6, r0
   14b14:	e5830000 	str	r0, [r3]
   14b18:	0a000011 	beq	14b64 <_nl_explode_name+0x20c>
   14b1c:	e1a01000 	mov	r1, r0
   14b20:	e5950000 	ldr	r0, [r5]
   14b24:	eb00442f 	bl	25be8 <strcmp>
   14b28:	e3500000 	cmp	r0, #0
   14b2c:	0a000004 	beq	14b44 <_nl_explode_name+0x1ec>
   14b30:	e3899003 	orr	r9, r9, #3
   14b34:	e5da1001 	ldrb	r1, [sl, #1]
   14b38:	eaffffad 	b	149f4 <_nl_explode_name+0x9c>
   14b3c:	e1a0900b 	mov	r9, fp
   14b40:	eaffffab 	b	149f4 <_nl_explode_name+0x9c>
   14b44:	e1a00006 	mov	r0, r6
   14b48:	eb003f13 	bl	2479c <__free>
   14b4c:	e1a0900b 	mov	r9, fp
   14b50:	e5da1001 	ldrb	r1, [sl, #1]
   14b54:	eaffffa6 	b	149f4 <_nl_explode_name+0x9c>
   14b58:	e1a0900b 	mov	r9, fp
   14b5c:	e1a04000 	mov	r4, r0
   14b60:	eaffffa3 	b	149f4 <_nl_explode_name+0x9c>
   14b64:	e3e09000 	mvn	r9, #0
   14b68:	eaffffb6 	b	14a48 <_nl_explode_name+0xf0>

00014b6c <__gettext_free_exp>:
   14b6c:	e92d4010 	push	{r4, lr}
   14b70:	e2504000 	subs	r4, r0, #0
   14b74:	08bd8010 	popeq	{r4, pc}
   14b78:	e5943000 	ldr	r3, [r4]
   14b7c:	e3530002 	cmp	r3, #2
   14b80:	0a000008 	beq	14ba8 <__gettext_free_exp+0x3c>
   14b84:	e3530003 	cmp	r3, #3
   14b88:	0a000004 	beq	14ba0 <__gettext_free_exp+0x34>
   14b8c:	e3530001 	cmp	r3, #1
   14b90:	0a000006 	beq	14bb0 <__gettext_free_exp+0x44>
   14b94:	e1a00004 	mov	r0, r4
   14b98:	e8bd4010 	pop	{r4, lr}
   14b9c:	ea003efe 	b	2479c <__free>
   14ba0:	e5940010 	ldr	r0, [r4, #16]
   14ba4:	ebfffff0 	bl	14b6c <__gettext_free_exp>
   14ba8:	e594000c 	ldr	r0, [r4, #12]
   14bac:	ebffffee 	bl	14b6c <__gettext_free_exp>
   14bb0:	e5940008 	ldr	r0, [r4, #8]
   14bb4:	ebffffec 	bl	14b6c <__gettext_free_exp>
   14bb8:	e1a00004 	mov	r0, r4
   14bbc:	e8bd4010 	pop	{r4, lr}
   14bc0:	ea003ef5 	b	2479c <__free>

00014bc4 <new_exp>:
   14bc4:	e2403001 	sub	r3, r0, #1
   14bc8:	e3730001 	cmn	r3, #1
   14bcc:	e92d41f0 	push	{r4, r5, r6, r7, r8, lr}
   14bd0:	e1a08001 	mov	r8, r1
   14bd4:	0a000023 	beq	14c68 <new_exp+0xa4>
   14bd8:	e7926103 	ldr	r6, [r2, r3, lsl #2]
   14bdc:	e1a04000 	mov	r4, r0
   14be0:	e3560000 	cmp	r6, #0
   14be4:	e1a05002 	mov	r5, r2
   14be8:	e1a07103 	lsl	r7, r3, #2
   14bec:	1a000003 	bne	14c00 <new_exp+0x3c>
   14bf0:	ea000012 	b	14c40 <new_exp+0x7c>
   14bf4:	e7952103 	ldr	r2, [r5, r3, lsl #2]
   14bf8:	e3520000 	cmp	r2, #0
   14bfc:	0a00000f 	beq	14c40 <new_exp+0x7c>
   14c00:	e2533001 	subs	r3, r3, #1
   14c04:	2afffffa 	bcs	14bf4 <new_exp+0x30>
   14c08:	e3a00014 	mov	r0, #20
   14c0c:	eb003d26 	bl	240ac <__libc_malloc>
   14c10:	e3500000 	cmp	r0, #0
   14c14:	0a000009 	beq	14c40 <new_exp+0x7c>
   14c18:	e8800110 	stm	r0, {r4, r8}
   14c1c:	e2873008 	add	r3, r7, #8
   14c20:	e0855007 	add	r5, r5, r7
   14c24:	e0803003 	add	r3, r0, r3
   14c28:	e2802004 	add	r2, r0, #4
   14c2c:	e4036004 	str	r6, [r3], #-4
   14c30:	e1530002 	cmp	r3, r2
   14c34:	08bd81f0 	popeq	{r4, r5, r6, r7, r8, pc}
   14c38:	e5356004 	ldr	r6, [r5, #-4]!
   14c3c:	eafffffa 	b	14c2c <new_exp+0x68>
   14c40:	e2444107 	sub	r4, r4, #-1073741823	; 0xc0000001
   14c44:	e0854104 	add	r4, r5, r4, lsl #2
   14c48:	ea000000 	b	14c50 <new_exp+0x8c>
   14c4c:	e5346004 	ldr	r6, [r4, #-4]!
   14c50:	e1a00006 	mov	r0, r6
   14c54:	ebffffc4 	bl	14b6c <__gettext_free_exp>
   14c58:	e1540005 	cmp	r4, r5
   14c5c:	1afffffa 	bne	14c4c <new_exp+0x88>
   14c60:	e3a00000 	mov	r0, #0
   14c64:	e8bd81f0 	pop	{r4, r5, r6, r7, r8, pc}
   14c68:	e3a00014 	mov	r0, #20
   14c6c:	eb003d0e 	bl	240ac <__libc_malloc>
   14c70:	e3500000 	cmp	r0, #0
   14c74:	0afffff9 	beq	14c60 <new_exp+0x9c>
   14c78:	e3a03000 	mov	r3, #0
   14c7c:	e8800108 	stm	r0, {r3, r8}
   14c80:	e8bd81f0 	pop	{r4, r5, r6, r7, r8, pc}

00014c84 <__gettextparse>:
   14c84:	e3a03000 	mov	r3, #0
   14c88:	e92d4ff0 	push	{r4, r5, r6, r7, r8, r9, sl, fp, lr}
   14c8c:	e24dde4d 	sub	sp, sp, #1232	; 0x4d0
   14c90:	e24dd00c 	sub	sp, sp, #12
   14c94:	e28d1024 	add	r1, sp, #36	; 0x24
   14c98:	e1a06003 	mov	r6, r3
   14c9c:	e1a05001 	mov	r5, r1
   14ca0:	e1a0b001 	mov	fp, r1
   14ca4:	e3e09001 	mvn	r9, #1
   14ca8:	e3a0a0c8 	mov	sl, #200	; 0xc8
   14cac:	e59f28e4 	ldr	r2, [pc, #2276]	; 15598 <__gettextparse+0x914>
   14cb0:	e28d4f6d 	add	r4, sp, #436	; 0x1b4
   14cb4:	e5922000 	ldr	r2, [r2]
   14cb8:	e59f78dc 	ldr	r7, [pc, #2268]	; 1559c <__gettextparse+0x918>
   14cbc:	e58d300c 	str	r3, [sp, #12]
   14cc0:	e58d1008 	str	r1, [sp, #8]
   14cc4:	e58d0010 	str	r0, [sp, #16]
   14cc8:	e1cd32b4 	strh	r3, [sp, #36]	; 0x24
   14ccc:	e58d24d4 	str	r2, [sp, #1236]	; 0x4d4
   14cd0:	e58d4004 	str	r4, [sp, #4]
   14cd4:	e19730d6 	ldrsb	r3, [r7, r6]
   14cd8:	e373000a 	cmn	r3, #10
   14cdc:	0a00000c 	beq	14d14 <__gettextparse+0x90>
   14ce0:	e3790002 	cmn	r9, #2
   14ce4:	0a0000b5 	beq	14fc0 <__gettextparse+0x33c>
   14ce8:	e3590000 	cmp	r9, #0
   14cec:	da0000b0 	ble	14fb4 <__gettextparse+0x330>
   14cf0:	e0872009 	add	r2, r7, r9
   14cf4:	e5d220d0 	ldrb	r2, [r2, #208]	; 0xd0
   14cf8:	e0833002 	add	r3, r3, r2
   14cfc:	e3530036 	cmp	r3, #54	; 0x36
   14d00:	8a000003 	bhi	14d14 <__gettextparse+0x90>
   14d04:	e0873003 	add	r3, r7, r3
   14d08:	e1d311dc 	ldrsb	r1, [r3, #28]
   14d0c:	e1510002 	cmp	r1, r2
   14d10:	0a00009a 	beq	14f80 <__gettextparse+0x2fc>
   14d14:	e0873006 	add	r3, r7, r6
   14d18:	e5d3308c 	ldrb	r3, [r3, #140]	; 0x8c
   14d1c:	e3530000 	cmp	r3, #0
   14d20:	0a000013 	beq	14d74 <__gettextparse+0xf0>
   14d24:	e0872003 	add	r2, r7, r3
   14d28:	e5d220a8 	ldrb	r2, [r2, #168]	; 0xa8
   14d2c:	e2431002 	sub	r1, r3, #2
   14d30:	e2620001 	rsb	r0, r2, #1
   14d34:	e7940100 	ldr	r0, [r4, r0, lsl #2]
   14d38:	e351000b 	cmp	r1, #11
   14d3c:	979ff101 	ldrls	pc, [pc, r1, lsl #2]
   14d40:	ea0001fb 	b	15534 <__gettextparse+0x8b0>
   14d44:	00015228 	.word	0x00015228
   14d48:	00015250 	.word	0x00015250
   14d4c:	000152e0 	.word	0x000152e0
   14d50:	000152f4 	.word	0x000152f4
   14d54:	00014e24 	.word	0x00014e24
   14d58:	00014e24 	.word	0x00014e24
   14d5c:	00014e24 	.word	0x00014e24
   14d60:	00014e24 	.word	0x00014e24
   14d64:	000152b0 	.word	0x000152b0
   14d68:	0001528c 	.word	0x0001528c
   14d6c:	00015320 	.word	0x00015320
   14d70:	00015308 	.word	0x00015308
   14d74:	e59d300c 	ldr	r3, [sp, #12]
   14d78:	e3530003 	cmp	r3, #3
   14d7c:	1a00000d 	bne	14db8 <__gettextparse+0x134>
   14d80:	e3590000 	cmp	r9, #0
   14d84:	c3e09001 	mvngt	r9, #1
   14d88:	ca00000a 	bgt	14db8 <__gettextparse+0x134>
   14d8c:	1a000009 	bne	14db8 <__gettextparse+0x134>
   14d90:	e1a0500b 	mov	r5, fp
   14d94:	e3a04001 	mov	r4, #1
   14d98:	ea000013 	b	14dec <__gettextparse+0x168>
   14d9c:	e5d36054 	ldrb	r6, [r3, #84]	; 0x54
   14da0:	e3560000 	cmp	r6, #0
   14da4:	1a000113 	bne	151f8 <__gettextparse+0x574>
   14da8:	e155000b 	cmp	r5, fp
   14dac:	0a00000d 	beq	14de8 <__gettextparse+0x164>
   14db0:	e17560f2 	ldrsh	r6, [r5, #-2]!
   14db4:	e2444004 	sub	r4, r4, #4
   14db8:	e19730d6 	ldrsb	r3, [r7, r6]
   14dbc:	e373000a 	cmn	r3, #10
   14dc0:	0afffff8 	beq	14da8 <__gettextparse+0x124>
   14dc4:	e2833001 	add	r3, r3, #1
   14dc8:	e3530036 	cmp	r3, #54	; 0x36
   14dcc:	8afffff5 	bhi	14da8 <__gettextparse+0x124>
   14dd0:	e0873003 	add	r3, r7, r3
   14dd4:	e1d321dc 	ldrsb	r2, [r3, #28]
   14dd8:	e3520001 	cmp	r2, #1
   14ddc:	0affffee 	beq	14d9c <__gettextparse+0x118>
   14de0:	e155000b 	cmp	r5, fp
   14de4:	1afffff1 	bne	14db0 <__gettextparse+0x12c>
   14de8:	e3a04001 	mov	r4, #1
   14dec:	e59d3008 	ldr	r3, [sp, #8]
   14df0:	e1550003 	cmp	r5, r3
   14df4:	0a000001 	beq	14e00 <__gettextparse+0x17c>
   14df8:	e1a00005 	mov	r0, r5
   14dfc:	eb003e66 	bl	2479c <__free>
   14e00:	e59f3790 	ldr	r3, [pc, #1936]	; 15598 <__gettextparse+0x914>
   14e04:	e59d24d4 	ldr	r2, [sp, #1236]	; 0x4d4
   14e08:	e5933000 	ldr	r3, [r3]
   14e0c:	e1a00004 	mov	r0, r4
   14e10:	e1520003 	cmp	r2, r3
   14e14:	1a0001de 	bne	15594 <__gettextparse+0x910>
   14e18:	e28dde4d 	add	sp, sp, #1232	; 0x4d0
   14e1c:	e28dd00c 	add	sp, sp, #12
   14e20:	e8bd8ff0 	pop	{r4, r5, r6, r7, r8, r9, sl, fp, pc}
   14e24:	e5141004 	ldr	r1, [r4, #-4]
   14e28:	e5940000 	ldr	r0, [r4]
   14e2c:	e5143008 	ldr	r3, [r4, #-8]
   14e30:	e28d2018 	add	r2, sp, #24
   14e34:	e58d001c 	str	r0, [sp, #28]
   14e38:	e3a00002 	mov	r0, #2
   14e3c:	e58d3018 	str	r3, [sp, #24]
   14e40:	e3e06000 	mvn	r6, #0
   14e44:	ebffff5e 	bl	14bc4 <new_exp>
   14e48:	e3a03002 	mov	r3, #2
   14e4c:	e244800c 	sub	r8, r4, #12
   14e50:	e2452006 	sub	r2, r5, #6
   14e54:	e1d210f0 	ldrsh	r1, [r2]
   14e58:	e2884004 	add	r4, r8, #4
   14e5c:	e0816006 	add	r6, r1, r6
   14e60:	e3560036 	cmp	r6, #54	; 0x36
   14e64:	e5880004 	str	r0, [r8, #4]
   14e68:	8a000004 	bhi	14e80 <__gettextparse+0x1fc>
   14e6c:	e0876006 	add	r6, r7, r6
   14e70:	e1d601dc 	ldrsb	r0, [r6, #28]
   14e74:	e1500001 	cmp	r0, r1
   14e78:	05d66054 	ldrbeq	r6, [r6, #84]	; 0x54
   14e7c:	0a000001 	beq	14e88 <__gettextparse+0x204>
   14e80:	e0873003 	add	r3, r7, r3
   14e84:	e1d36cdc 	ldrsb	r6, [r3, #204]	; 0xcc
   14e88:	e24a3106 	sub	r3, sl, #-2147483647	; 0x80000001
   14e8c:	e1a03083 	lsl	r3, r3, #1
   14e90:	e2825002 	add	r5, r2, #2
   14e94:	e08b1003 	add	r1, fp, r3
   14e98:	e1550001 	cmp	r5, r1
   14e9c:	e1c260b2 	strh	r6, [r2, #2]
   14ea0:	3a000031 	bcc	14f6c <__gettextparse+0x2e8>
   14ea4:	e59f26f4 	ldr	r2, [pc, #1780]	; 155a0 <__gettextparse+0x91c>
   14ea8:	e045800b 	sub	r8, r5, fp
   14eac:	e1a080c8 	asr	r8, r8, #1
   14eb0:	e15a0002 	cmp	sl, r2
   14eb4:	e2888001 	add	r8, r8, #1
   14eb8:	8a00012a 	bhi	15368 <__gettextparse+0x6e4>
   14ebc:	e2833002 	add	r3, r3, #2
   14ec0:	e2822001 	add	r2, r2, #1
   14ec4:	e1530002 	cmp	r3, r2
   14ec8:	31a0a003 	movcc	sl, r3
   14ecc:	21a0a002 	movcs	sl, r2
   14ed0:	e1a0508a 	lsl	r5, sl, #1
   14ed4:	e085000a 	add	r0, r5, sl
   14ed8:	e1a00080 	lsl	r0, r0, #1
   14edc:	e2800003 	add	r0, r0, #3
   14ee0:	eb003c71 	bl	240ac <__libc_malloc>
   14ee4:	e2503000 	subs	r3, r0, #0
   14ee8:	e58d3000 	str	r3, [sp]
   14eec:	0a00011d 	beq	15368 <__gettextparse+0x6e4>
   14ef0:	e1a04088 	lsl	r4, r8, #1
   14ef4:	e1a02004 	mov	r2, r4
   14ef8:	e1a0100b 	mov	r1, fp
   14efc:	eb0048af 	bl	271c0 <memcpy>
   14f00:	e59d2000 	ldr	r2, [sp]
   14f04:	e2853003 	add	r3, r5, #3
   14f08:	e3c33003 	bic	r3, r3, #3
   14f0c:	e0823003 	add	r3, r2, r3
   14f10:	e1a08108 	lsl	r8, r8, #2
   14f14:	e1a00003 	mov	r0, r3
   14f18:	e1a02008 	mov	r2, r8
   14f1c:	e59d1004 	ldr	r1, [sp, #4]
   14f20:	eb0048a6 	bl	271c0 <memcpy>
   14f24:	e59d2008 	ldr	r2, [sp, #8]
   14f28:	e1a03000 	mov	r3, r0
   14f2c:	e15b0002 	cmp	fp, r2
   14f30:	0a000003 	beq	14f44 <__gettextparse+0x2c0>
   14f34:	e58d0004 	str	r0, [sp, #4]
   14f38:	e1a0000b 	mov	r0, fp
   14f3c:	eb003e16 	bl	2479c <__free>
   14f40:	e59d3004 	ldr	r3, [sp, #4]
   14f44:	e59db000 	ldr	fp, [sp]
   14f48:	e2444002 	sub	r4, r4, #2
   14f4c:	e2452002 	sub	r2, r5, #2
   14f50:	e08b2002 	add	r2, fp, r2
   14f54:	e08b5004 	add	r5, fp, r4
   14f58:	e2488004 	sub	r8, r8, #4
   14f5c:	e1550002 	cmp	r5, r2
   14f60:	e0834008 	add	r4, r3, r8
   14f64:	2a00016f 	bcs	15528 <__gettextparse+0x8a4>
   14f68:	e58d3004 	str	r3, [sp, #4]
   14f6c:	e3560009 	cmp	r6, #9
   14f70:	1affff57 	bne	14cd4 <__gettextparse+0x50>
   14f74:	e1a0500b 	mov	r5, fp
   14f78:	e3a04000 	mov	r4, #0
   14f7c:	eaffff9a 	b	14dec <__gettextparse+0x168>
   14f80:	e5d36054 	ldrb	r6, [r3, #84]	; 0x54
   14f84:	e3560000 	cmp	r6, #0
   14f88:	0a0000a1 	beq	15214 <__gettextparse+0x590>
   14f8c:	e59d300c 	ldr	r3, [sp, #12]
   14f90:	e1a02005 	mov	r2, r5
   14f94:	e3530000 	cmp	r3, #0
   14f98:	12433001 	subne	r3, r3, #1
   14f9c:	158d300c 	strne	r3, [sp, #12]
   14fa0:	e59d3014 	ldr	r3, [sp, #20]
   14fa4:	e2844004 	add	r4, r4, #4
   14fa8:	e5843000 	str	r3, [r4]
   14fac:	e3e09001 	mvn	r9, #1
   14fb0:	eaffffb4 	b	14e88 <__gettextparse+0x204>
   14fb4:	e3a09000 	mov	r9, #0
   14fb8:	e1a02009 	mov	r2, r9
   14fbc:	eaffff4e 	b	14cfc <__gettextparse+0x78>
   14fc0:	e59d2010 	ldr	r2, [sp, #16]
   14fc4:	e5921000 	ldr	r1, [r2]
   14fc8:	e5d12000 	ldrb	r2, [r1]
   14fcc:	e3520000 	cmp	r2, #0
   14fd0:	1a000003 	bne	14fe4 <__gettextparse+0x360>
   14fd4:	ea0000de 	b	15354 <__gettextparse+0x6d0>
   14fd8:	e5f12001 	ldrb	r2, [r1, #1]!
   14fdc:	e3520000 	cmp	r2, #0
   14fe0:	0a0000db 	beq	15354 <__gettextparse+0x6d0>
   14fe4:	e3520020 	cmp	r2, #32
   14fe8:	13520009 	cmpne	r2, #9
   14fec:	0afffff9 	beq	14fd8 <__gettextparse+0x354>
   14ff0:	e2810001 	add	r0, r1, #1
   14ff4:	e1a09002 	mov	r9, r2
   14ff8:	e352007c 	cmp	r2, #124	; 0x7c
   14ffc:	979ff102 	ldrls	pc, [pc, r2, lsl #2]
   15000:	ea0000ec 	b	153b8 <__gettextparse+0x734>
   15004:	00015354 	.word	0x00015354
   15008:	000153b8 	.word	0x000153b8
   1500c:	000153b8 	.word	0x000153b8
   15010:	000153b8 	.word	0x000153b8
   15014:	000153b8 	.word	0x000153b8
   15018:	000153b8 	.word	0x000153b8
   1501c:	000153b8 	.word	0x000153b8
   15020:	000153b8 	.word	0x000153b8
   15024:	000153b8 	.word	0x000153b8
   15028:	000153b8 	.word	0x000153b8
   1502c:	00015354 	.word	0x00015354
   15030:	000153b8 	.word	0x000153b8
   15034:	000153b8 	.word	0x000153b8
   15038:	000153b8 	.word	0x000153b8
   1503c:	000153b8 	.word	0x000153b8
   15040:	000153b8 	.word	0x000153b8
   15044:	000153b8 	.word	0x000153b8
   15048:	000153b8 	.word	0x000153b8
   1504c:	000153b8 	.word	0x000153b8
   15050:	000153b8 	.word	0x000153b8
   15054:	000153b8 	.word	0x000153b8
   15058:	000153b8 	.word	0x000153b8
   1505c:	000153b8 	.word	0x000153b8
   15060:	000153b8 	.word	0x000153b8
   15064:	000153b8 	.word	0x000153b8
   15068:	000153b8 	.word	0x000153b8
   1506c:	000153b8 	.word	0x000153b8
   15070:	000153b8 	.word	0x000153b8
   15074:	000153b8 	.word	0x000153b8
   15078:	000153b8 	.word	0x000153b8
   1507c:	000153b8 	.word	0x000153b8
   15080:	000153b8 	.word	0x000153b8
   15084:	000153b8 	.word	0x000153b8
   15088:	000154e0 	.word	0x000154e0
   1508c:	000153b8 	.word	0x000153b8
   15090:	000153b8 	.word	0x000153b8
   15094:	000153b8 	.word	0x000153b8
   15098:	00015500 	.word	0x00015500
   1509c:	000154c4 	.word	0x000154c4
   150a0:	000153b8 	.word	0x000153b8
   150a4:	000154d4 	.word	0x000154d4
   150a8:	000154d4 	.word	0x000154d4
   150ac:	000154a8 	.word	0x000154a8
   150b0:	0001548c 	.word	0x0001548c
   150b4:	000153b8 	.word	0x000153b8
   150b8:	00015470 	.word	0x00015470
   150bc:	000153b8 	.word	0x000153b8
   150c0:	00015454 	.word	0x00015454
   150c4:	00015404 	.word	0x00015404
   150c8:	00015404 	.word	0x00015404
   150cc:	00015404 	.word	0x00015404
   150d0:	00015404 	.word	0x00015404
   150d4:	00015404 	.word	0x00015404
   150d8:	00015404 	.word	0x00015404
   150dc:	00015404 	.word	0x00015404
   150e0:	00015404 	.word	0x00015404
   150e4:	00015404 	.word	0x00015404
   150e8:	00015404 	.word	0x00015404
   150ec:	000154d4 	.word	0x000154d4
   150f0:	00015354 	.word	0x00015354
   150f4:	000153cc 	.word	0x000153cc
   150f8:	000153ac 	.word	0x000153ac
   150fc:	00015374 	.word	0x00015374
   15100:	000154d4 	.word	0x000154d4
   15104:	000153b8 	.word	0x000153b8
   15108:	000153b8 	.word	0x000153b8
   1510c:	000153b8 	.word	0x000153b8
   15110:	000153b8 	.word	0x000153b8
   15114:	000153b8 	.word	0x000153b8
   15118:	000153b8 	.word	0x000153b8
   1511c:	000153b8 	.word	0x000153b8
   15120:	000153b8 	.word	0x000153b8
   15124:	000153b8 	.word	0x000153b8
   15128:	000153b8 	.word	0x000153b8
   1512c:	000153b8 	.word	0x000153b8
   15130:	000153b8 	.word	0x000153b8
   15134:	000153b8 	.word	0x000153b8
   15138:	000153b8 	.word	0x000153b8
   1513c:	000153b8 	.word	0x000153b8
   15140:	000153b8 	.word	0x000153b8
   15144:	000153b8 	.word	0x000153b8
   15148:	000153b8 	.word	0x000153b8
   1514c:	000153b8 	.word	0x000153b8
   15150:	000153b8 	.word	0x000153b8
   15154:	000153b8 	.word	0x000153b8
   15158:	000153b8 	.word	0x000153b8
   1515c:	000153b8 	.word	0x000153b8
   15160:	000153b8 	.word	0x000153b8
   15164:	000153b8 	.word	0x000153b8
   15168:	000153b8 	.word	0x000153b8
   1516c:	000153b8 	.word	0x000153b8
   15170:	000153b8 	.word	0x000153b8
   15174:	000153b8 	.word	0x000153b8
   15178:	000153b8 	.word	0x000153b8
   1517c:	000153b8 	.word	0x000153b8
   15180:	000153b8 	.word	0x000153b8
   15184:	000153b8 	.word	0x000153b8
   15188:	000153b8 	.word	0x000153b8
   1518c:	000153b8 	.word	0x000153b8
   15190:	000153b8 	.word	0x000153b8
   15194:	000153b8 	.word	0x000153b8
   15198:	000153b8 	.word	0x000153b8
   1519c:	000153b8 	.word	0x000153b8
   151a0:	000153b8 	.word	0x000153b8
   151a4:	000153b8 	.word	0x000153b8
   151a8:	000153b8 	.word	0x000153b8
   151ac:	000153b8 	.word	0x000153b8
   151b0:	000153b8 	.word	0x000153b8
   151b4:	000153b8 	.word	0x000153b8
   151b8:	000153b8 	.word	0x000153b8
   151bc:	000154d4 	.word	0x000154d4
   151c0:	000153b8 	.word	0x000153b8
   151c4:	000153b8 	.word	0x000153b8
   151c8:	000153b8 	.word	0x000153b8
   151cc:	000153b8 	.word	0x000153b8
   151d0:	000153b8 	.word	0x000153b8
   151d4:	000153b8 	.word	0x000153b8
   151d8:	000153b8 	.word	0x000153b8
   151dc:	000153b8 	.word	0x000153b8
   151e0:	000153b8 	.word	0x000153b8
   151e4:	000153b8 	.word	0x000153b8
   151e8:	000153b8 	.word	0x000153b8
   151ec:	000153b8 	.word	0x000153b8
   151f0:	000153b8 	.word	0x000153b8
   151f4:	000154c4 	.word	0x000154c4
   151f8:	e59d3014 	ldr	r3, [sp, #20]
   151fc:	e1a02005 	mov	r2, r5
   15200:	e5843004 	str	r3, [r4, #4]
   15204:	e3a03003 	mov	r3, #3
   15208:	e2844004 	add	r4, r4, #4
   1520c:	e58d300c 	str	r3, [sp, #12]
   15210:	eaffff1c 	b	14e88 <__gettextparse+0x204>
   15214:	e1a02005 	mov	r2, r5
   15218:	e5940004 	ldr	r0, [r4, #4]
   1521c:	e1a08004 	mov	r8, r4
   15220:	e3e0300f 	mvn	r3, #15
   15224:	eaffff0a 	b	14e54 <__gettextparse+0x1d0>
   15228:	e5943000 	ldr	r3, [r4]
   1522c:	e3530000 	cmp	r3, #0
   15230:	0afffed6 	beq	14d90 <__gettextparse+0x10c>
   15234:	e59d2010 	ldr	r2, [sp, #16]
   15238:	e2448004 	sub	r8, r4, #4
   1523c:	e5823004 	str	r3, [r2, #4]
   15240:	e3e06009 	mvn	r6, #9
   15244:	e2452002 	sub	r2, r5, #2
   15248:	e3a03001 	mov	r3, #1
   1524c:	eaffff00 	b	14e54 <__gettextparse+0x1d0>
   15250:	e5141008 	ldr	r1, [r4, #-8]
   15254:	e5940000 	ldr	r0, [r4]
   15258:	e5143010 	ldr	r3, [r4, #-16]
   1525c:	e28d2018 	add	r2, sp, #24
   15260:	e58d101c 	str	r1, [sp, #28]
   15264:	e58d0020 	str	r0, [sp, #32]
   15268:	e3a01010 	mov	r1, #16
   1526c:	e3a00003 	mov	r0, #3
   15270:	e58d3018 	str	r3, [sp, #24]
   15274:	e2448014 	sub	r8, r4, #20
   15278:	ebfffe51 	bl	14bc4 <new_exp>
   1527c:	e3e06000 	mvn	r6, #0
   15280:	e245200a 	sub	r2, r5, #10
   15284:	e3a03002 	mov	r3, #2
   15288:	eafffef1 	b	14e54 <__gettextparse+0x1d0>
   1528c:	e3a02000 	mov	r2, #0
   15290:	e1a01002 	mov	r1, r2
   15294:	e1a00002 	mov	r0, r2
   15298:	ebfffe49 	bl	14bc4 <new_exp>
   1529c:	e2448004 	sub	r8, r4, #4
   152a0:	e2452002 	sub	r2, r5, #2
   152a4:	e3e06000 	mvn	r6, #0
   152a8:	e3a03002 	mov	r3, #2
   152ac:	eafffee8 	b	14e54 <__gettextparse+0x1d0>
   152b0:	e1a08004 	mov	r8, r4
   152b4:	e28d2e4d 	add	r2, sp, #1232	; 0x4d0
   152b8:	e4183008 	ldr	r3, [r8], #-8
   152bc:	e2822008 	add	r2, r2, #8
   152c0:	e52234c0 	str	r3, [r2, #-1216]!	; 0xfffffb40
   152c4:	e3a01002 	mov	r1, #2
   152c8:	e3a00001 	mov	r0, #1
   152cc:	ebfffe3c 	bl	14bc4 <new_exp>
   152d0:	e3e06000 	mvn	r6, #0
   152d4:	e2452004 	sub	r2, r5, #4
   152d8:	e3a03002 	mov	r3, #2
   152dc:	eafffedc 	b	14e54 <__gettextparse+0x1d0>
   152e0:	e5940000 	ldr	r0, [r4]
   152e4:	e5143008 	ldr	r3, [r4, #-8]
   152e8:	e28d2018 	add	r2, sp, #24
   152ec:	e3a0100f 	mov	r1, #15
   152f0:	eafffecf 	b	14e34 <__gettextparse+0x1b0>
   152f4:	e5940000 	ldr	r0, [r4]
   152f8:	e5143008 	ldr	r3, [r4, #-8]
   152fc:	e28d2018 	add	r2, sp, #24
   15300:	e3a0100e 	mov	r1, #14
   15304:	eafffeca 	b	14e34 <__gettextparse+0x1b0>
   15308:	e2452006 	sub	r2, r5, #6
   1530c:	e5140004 	ldr	r0, [r4, #-4]
   15310:	e244800c 	sub	r8, r4, #12
   15314:	e3e06000 	mvn	r6, #0
   15318:	e3a03002 	mov	r3, #2
   1531c:	eafffecc 	b	14e54 <__gettextparse+0x1d0>
   15320:	e3a02000 	mov	r2, #0
   15324:	e3a01001 	mov	r1, #1
   15328:	e1a00002 	mov	r0, r2
   1532c:	ebfffe24 	bl	14bc4 <new_exp>
   15330:	e3500000 	cmp	r0, #0
   15334:	e2452002 	sub	r2, r5, #2
   15338:	e2448004 	sub	r8, r4, #4
   1533c:	0a000076 	beq	1551c <__gettextparse+0x898>
   15340:	e5943000 	ldr	r3, [r4]
   15344:	e3e06000 	mvn	r6, #0
   15348:	e5803008 	str	r3, [r0, #8]
   1534c:	e3a03002 	mov	r3, #2
   15350:	eafffebf 	b	14e54 <__gettextparse+0x1d0>
   15354:	e3a02000 	mov	r2, #0
   15358:	e59d0010 	ldr	r0, [sp, #16]
   1535c:	e1a09002 	mov	r9, r2
   15360:	e5801000 	str	r1, [r0]
   15364:	eafffe64 	b	14cfc <__gettextparse+0x78>
   15368:	e1a0500b 	mov	r5, fp
   1536c:	e3a04002 	mov	r4, #2
   15370:	eafffe9d 	b	14dec <__gettextparse+0x168>
   15374:	e5d12001 	ldrb	r2, [r1, #1]
   15378:	e59f9224 	ldr	r9, [pc, #548]	; 155a4 <__gettextparse+0x920>
   1537c:	e352003d 	cmp	r2, #61	; 0x3d
   15380:	059d2010 	ldreq	r2, [sp, #16]
   15384:	02811002 	addeq	r1, r1, #2
   15388:	05821000 	streq	r1, [r2]
   1538c:	13a01009 	movne	r1, #9
   15390:	03a0100b 	moveq	r1, #11
   15394:	159d2010 	ldrne	r2, [sp, #16]
   15398:	03a02007 	moveq	r2, #7
   1539c:	15820000 	strne	r0, [r2]
   153a0:	e58d1014 	str	r1, [sp, #20]
   153a4:	13a02007 	movne	r2, #7
   153a8:	eafffe52 	b	14cf8 <__gettextparse+0x74>
   153ac:	e5d12001 	ldrb	r2, [r1, #1]
   153b0:	e352003d 	cmp	r2, #61	; 0x3d
   153b4:	0a000066 	beq	15554 <__gettextparse+0x8d0>
   153b8:	e59d2010 	ldr	r2, [sp, #16]
   153bc:	e3a09c01 	mov	r9, #256	; 0x100
   153c0:	e5820000 	str	r0, [r2]
   153c4:	e3a02001 	mov	r2, #1
   153c8:	eafffe4a 	b	14cf8 <__gettextparse+0x74>
   153cc:	e5d12001 	ldrb	r2, [r1, #1]
   153d0:	e59f91cc 	ldr	r9, [pc, #460]	; 155a4 <__gettextparse+0x920>
   153d4:	e352003d 	cmp	r2, #61	; 0x3d
   153d8:	059d2010 	ldreq	r2, [sp, #16]
   153dc:	02811002 	addeq	r1, r1, #2
   153e0:	05821000 	streq	r1, [r2]
   153e4:	13a01008 	movne	r1, #8
   153e8:	03a0100a 	moveq	r1, #10
   153ec:	159d2010 	ldrne	r2, [sp, #16]
   153f0:	03a02007 	moveq	r2, #7
   153f4:	15820000 	strne	r0, [r2]
   153f8:	e58d1014 	str	r1, [sp, #20]
   153fc:	13a02007 	movne	r2, #7
   15400:	eafffe3c 	b	14cf8 <__gettextparse+0x74>
   15404:	e5d11001 	ldrb	r1, [r1, #1]
   15408:	e242c030 	sub	ip, r2, #48	; 0x30
   1540c:	e2412030 	sub	r2, r1, #48	; 0x30
   15410:	e3520009 	cmp	r2, #9
   15414:	e58dc014 	str	ip, [sp, #20]
   15418:	8a000008 	bhi	15440 <__gettextparse+0x7bc>
   1541c:	e1a0200c 	mov	r2, ip
   15420:	e0822102 	add	r2, r2, r2, lsl #2
   15424:	e0812082 	add	r2, r1, r2, lsl #1
   15428:	e5f01001 	ldrb	r1, [r0, #1]!
   1542c:	e2422030 	sub	r2, r2, #48	; 0x30
   15430:	e241c030 	sub	ip, r1, #48	; 0x30
   15434:	e35c0009 	cmp	ip, #9
   15438:	9afffff8 	bls	15420 <__gettextparse+0x79c>
   1543c:	e58d2014 	str	r2, [sp, #20]
   15440:	e59d2010 	ldr	r2, [sp, #16]
   15444:	e59f915c 	ldr	r9, [pc, #348]	; 155a8 <__gettextparse+0x924>
   15448:	e5820000 	str	r0, [r2]
   1544c:	e3a0200b 	mov	r2, #11
   15450:	eafffe28 	b	14cf8 <__gettextparse+0x74>
   15454:	e3a01004 	mov	r1, #4
   15458:	e59d2010 	ldr	r2, [sp, #16]
   1545c:	e58d1014 	str	r1, [sp, #20]
   15460:	e5820000 	str	r0, [r2]
   15464:	e59f9140 	ldr	r9, [pc, #320]	; 155ac <__gettextparse+0x928>
   15468:	e3a02009 	mov	r2, #9
   1546c:	eafffe21 	b	14cf8 <__gettextparse+0x74>
   15470:	e3a01007 	mov	r1, #7
   15474:	e59d2010 	ldr	r2, [sp, #16]
   15478:	e58d1014 	str	r1, [sp, #20]
   1547c:	e5820000 	str	r0, [r2]
   15480:	e3a09f41 	mov	r9, #260	; 0x104
   15484:	e3a02008 	mov	r2, #8
   15488:	eafffe1a 	b	14cf8 <__gettextparse+0x74>
   1548c:	e3a01006 	mov	r1, #6
   15490:	e59d2010 	ldr	r2, [sp, #16]
   15494:	e58d1014 	str	r1, [sp, #20]
   15498:	e5820000 	str	r0, [r2]
   1549c:	e3a09f41 	mov	r9, #260	; 0x104
   154a0:	e3a02008 	mov	r2, #8
   154a4:	eafffe13 	b	14cf8 <__gettextparse+0x74>
   154a8:	e3a01003 	mov	r1, #3
   154ac:	e59d2010 	ldr	r2, [sp, #16]
   154b0:	e58d1014 	str	r1, [sp, #20]
   154b4:	e5820000 	str	r0, [r2]
   154b8:	e59f90ec 	ldr	r9, [pc, #236]	; 155ac <__gettextparse+0x928>
   154bc:	e3a02009 	mov	r2, #9
   154c0:	eafffe0c 	b	14cf8 <__gettextparse+0x74>
   154c4:	e5d1c001 	ldrb	ip, [r1, #1]
   154c8:	e15c0002 	cmp	ip, r2
   154cc:	02810002 	addeq	r0, r1, #2
   154d0:	1affffb8 	bne	153b8 <__gettextparse+0x734>
   154d4:	e59d2010 	ldr	r2, [sp, #16]
   154d8:	e5820000 	str	r0, [r2]
   154dc:	eafffe01 	b	14ce8 <__gettextparse+0x64>
   154e0:	e5d12001 	ldrb	r2, [r1, #1]
   154e4:	e352003d 	cmp	r2, #61	; 0x3d
   154e8:	0a000021 	beq	15574 <__gettextparse+0x8f0>
   154ec:	e59d2010 	ldr	r2, [sp, #16]
   154f0:	e3a09021 	mov	r9, #33	; 0x21
   154f4:	e5820000 	str	r0, [r2]
   154f8:	e3a0200a 	mov	r2, #10
   154fc:	eafffdfd 	b	14cf8 <__gettextparse+0x74>
   15500:	e3a01005 	mov	r1, #5
   15504:	e59d2010 	ldr	r2, [sp, #16]
   15508:	e58d1014 	str	r1, [sp, #20]
   1550c:	e5820000 	str	r0, [r2]
   15510:	e59f9094 	ldr	r9, [pc, #148]	; 155ac <__gettextparse+0x928>
   15514:	e3a02009 	mov	r2, #9
   15518:	eafffdf6 	b	14cf8 <__gettextparse+0x74>
   1551c:	e3e06000 	mvn	r6, #0
   15520:	e3a03002 	mov	r3, #2
   15524:	eafffe4a 	b	14e54 <__gettextparse+0x1d0>
   15528:	e59d5000 	ldr	r5, [sp]
   1552c:	e3a04001 	mov	r4, #1
   15530:	eafffe30 	b	14df8 <__gettextparse+0x174>
   15534:	e0873003 	add	r3, r7, r3
   15538:	e5d330b8 	ldrb	r3, [r3, #184]	; 0xb8
   1553c:	e0448102 	sub	r8, r4, r2, lsl #2
   15540:	e2433010 	sub	r3, r3, #16
   15544:	e0871003 	add	r1, r7, r3
   15548:	e0452082 	sub	r2, r5, r2, lsl #1
   1554c:	e1d16cd8 	ldrsb	r6, [r1, #200]	; 0xc8
   15550:	eafffe3f 	b	14e54 <__gettextparse+0x1d0>
   15554:	e59d2010 	ldr	r2, [sp, #16]
   15558:	e2811002 	add	r1, r1, #2
   1555c:	e5821000 	str	r1, [r2]
   15560:	e3a0100c 	mov	r1, #12
   15564:	e3a02006 	mov	r2, #6
   15568:	e58d1014 	str	r1, [sp, #20]
   1556c:	e59f903c 	ldr	r9, [pc, #60]	; 155b0 <__gettextparse+0x92c>
   15570:	eafffde0 	b	14cf8 <__gettextparse+0x74>
   15574:	e59d2010 	ldr	r2, [sp, #16]
   15578:	e2811002 	add	r1, r1, #2
   1557c:	e5821000 	str	r1, [r2]
   15580:	e3a0100d 	mov	r1, #13
   15584:	e3a02006 	mov	r2, #6
   15588:	e58d1014 	str	r1, [sp, #20]
   1558c:	e59f901c 	ldr	r9, [pc, #28]	; 155b0 <__gettextparse+0x92c>
   15590:	eafffdd8 	b	14cf8 <__gettextparse+0x74>
   15594:	eb005543 	bl	2aaa8 <__stack_chk_fail>
   15598:	00085b98 	.word	0x00085b98
   1559c:	00060d08 	.word	0x00060d08
   155a0:	0000270f 	.word	0x0000270f
   155a4:	00000103 	.word	0x00000103
   155a8:	00000106 	.word	0x00000106
   155ac:	00000105 	.word	0x00000105
   155b0:	00000102 	.word	0x00000102

000155b4 <__gettext_extract_plural>:
   155b4:	e92d41f0 	push	{r4, r5, r6, r7, r8, lr}
   155b8:	e59f510c 	ldr	r5, [pc, #268]	; 156cc <__gettext_extract_plural+0x118>
   155bc:	e24dd010 	sub	sp, sp, #16
   155c0:	e5953000 	ldr	r3, [r5]
   155c4:	e2504000 	subs	r4, r0, #0
   155c8:	e1a08001 	mov	r8, r1
   155cc:	e1a06002 	mov	r6, r2
   155d0:	e58d300c 	str	r3, [sp, #12]
   155d4:	0a00001c 	beq	1564c <__gettext_extract_plural+0x98>
   155d8:	e59f10f0 	ldr	r1, [pc, #240]	; 156d0 <__gettext_extract_plural+0x11c>
   155dc:	eb004399 	bl	26448 <strstr>
   155e0:	e59f10ec 	ldr	r1, [pc, #236]	; 156d4 <__gettext_extract_plural+0x120>
   155e4:	e1a07000 	mov	r7, r0
   155e8:	e1a00004 	mov	r0, r4
   155ec:	eb004395 	bl	26448 <strstr>
   155f0:	e3500000 	cmp	r0, #0
   155f4:	13570000 	cmpne	r7, #0
   155f8:	0a000013 	beq	1564c <__gettext_extract_plural+0x98>
   155fc:	e5d03009 	ldrb	r3, [r0, #9]
   15600:	e2804009 	add	r4, r0, #9
   15604:	e3530000 	cmp	r3, #0
   15608:	0a00000f 	beq	1564c <__gettext_extract_plural+0x98>
   1560c:	ebffed4b 	bl	10b40 <__aeabi_read_tp>
   15610:	e59f10c0 	ldr	r1, [pc, #192]	; 156d8 <__gettext_extract_plural+0x124>
   15614:	e1a02083 	lsl	r2, r3, #1
   15618:	e79f1001 	ldr	r1, [pc, r1]
   1561c:	e7901001 	ldr	r1, [r0, r1]
   15620:	e19120b2 	ldrh	r2, [r1, r2]
   15624:	e3120a02 	tst	r2, #8192	; 0x2000
   15628:	1a000004 	bne	15640 <__gettext_extract_plural+0x8c>
   1562c:	ea000010 	b	15674 <__gettext_extract_plural+0xc0>
   15630:	e1a02083 	lsl	r2, r3, #1
   15634:	e19120b2 	ldrh	r2, [r1, r2]
   15638:	e3120a02 	tst	r2, #8192	; 0x2000
   1563c:	0a00000c 	beq	15674 <__gettext_extract_plural+0xc0>
   15640:	e5f43001 	ldrb	r3, [r4, #1]!
   15644:	e3530000 	cmp	r3, #0
   15648:	1afffff8 	bne	15630 <__gettext_extract_plural+0x7c>
   1564c:	e3a03002 	mov	r3, #2
   15650:	e59f2084 	ldr	r2, [pc, #132]	; 156dc <__gettext_extract_plural+0x128>
   15654:	e5882000 	str	r2, [r8]
   15658:	e5863000 	str	r3, [r6]
   1565c:	e59d200c 	ldr	r2, [sp, #12]
   15660:	e5953000 	ldr	r3, [r5]
   15664:	e1520003 	cmp	r2, r3
   15668:	1a000016 	bne	156c8 <__gettext_extract_plural+0x114>
   1566c:	e28dd010 	add	sp, sp, #16
   15670:	e8bd81f0 	pop	{r4, r5, r6, r7, r8, pc}
   15674:	e2433030 	sub	r3, r3, #48	; 0x30
   15678:	e3530009 	cmp	r3, #9
   1567c:	8afffff2 	bhi	1564c <__gettext_extract_plural+0x98>
   15680:	e3a0200a 	mov	r2, #10
   15684:	e1a0100d 	mov	r1, sp
   15688:	e1a00004 	mov	r0, r4
   1568c:	eb000426 	bl	1672c <__strtoul>
   15690:	e59d3000 	ldr	r3, [sp]
   15694:	e1530004 	cmp	r3, r4
   15698:	0affffeb 	beq	1564c <__gettext_extract_plural+0x98>
   1569c:	e28d3010 	add	r3, sp, #16
   156a0:	e2877007 	add	r7, r7, #7
   156a4:	e523700c 	str	r7, [r3, #-12]!
   156a8:	e5860000 	str	r0, [r6]
   156ac:	e1a00003 	mov	r0, r3
   156b0:	ebfffd73 	bl	14c84 <__gettextparse>
   156b4:	e3500000 	cmp	r0, #0
   156b8:	1affffe3 	bne	1564c <__gettext_extract_plural+0x98>
   156bc:	e59d3008 	ldr	r3, [sp, #8]
   156c0:	e5883000 	str	r3, [r8]
   156c4:	eaffffe4 	b	1565c <__gettext_extract_plural+0xa8>
   156c8:	eb0054f6 	bl	2aaa8 <__stack_chk_fail>
   156cc:	00085b98 	.word	0x00085b98
   156d0:	00060f1c 	.word	0x00060f1c
   156d4:	00060f24 	.word	0x00060f24
   156d8:	00070a38 	.word	0x00070a38
   156dc:	00060ee0 	.word	0x00060ee0

000156e0 <__hash_string>:
   156e0:	e2402001 	sub	r2, r0, #1
   156e4:	e3a00000 	mov	r0, #0
   156e8:	e5f23001 	ldrb	r3, [r2, #1]!
   156ec:	e3530000 	cmp	r3, #0
   156f0:	012fff1e 	bxeq	lr
   156f4:	e0830200 	add	r0, r3, r0, lsl #4
   156f8:	e210320f 	ands	r3, r0, #-268435456	; 0xf0000000
   156fc:	13c0020f 	bicne	r0, r0, #-268435456	; 0xf0000000
   15700:	10200c23 	eorne	r0, r0, r3, lsr #24
   15704:	eafffff7 	b	156e8 <__hash_string+0x8>
	...

00015710 <_setjmp>:
   15710:	e3a01000 	mov	r1, #0
   15714:	ea00870d 	b	37350 <__sigsetjmp>

00015718 <abort>:
   15718:	e92d4080 	push	{r7, lr}
   1571c:	ebffed07 	bl	10b40 <__aeabi_read_tp>
   15720:	e59f5250 	ldr	r5, [pc, #592]	; 15978 <abort+0x260>
   15724:	e59f3250 	ldr	r3, [pc, #592]	; 1597c <abort+0x264>
   15728:	e5952008 	ldr	r2, [r5, #8]
   1572c:	e2406d13 	sub	r6, r0, #1216	; 0x4c0
   15730:	e5933000 	ldr	r3, [r3]
   15734:	e24dde11 	sub	sp, sp, #272	; 0x110
   15738:	e1520006 	cmp	r2, r6
   1573c:	e58d310c 	str	r3, [sp, #268]	; 0x10c
   15740:	0a00000e 	beq	15780 <abort+0x68>
   15744:	e3a01001 	mov	r1, #1
   15748:	e1a02005 	mov	r2, r5
   1574c:	e3a04000 	mov	r4, #0
   15750:	e5923000 	ldr	r3, [r2]
   15754:	e1530004 	cmp	r3, r4
   15758:	1a000005 	bne	15774 <abort+0x5c>
   1575c:	e1a00004 	mov	r0, r4
   15760:	e3e03a0f 	mvn	r3, #61440	; 0xf000
   15764:	e1a0e00f 	mov	lr, pc
   15768:	e243f03f 	sub	pc, r3, #63	; 0x3f
   1576c:	3afffff7 	bcc	15750 <abort+0x38>
   15770:	e1a03004 	mov	r3, r4
   15774:	e1530004 	cmp	r3, r4
   15778:	1a000078 	bne	15960 <abort+0x248>
   1577c:	e5856008 	str	r6, [r5, #8]
   15780:	e5952004 	ldr	r2, [r5, #4]
   15784:	e595300c 	ldr	r3, [r5, #12]
   15788:	e2822001 	add	r2, r2, #1
   1578c:	e3530000 	cmp	r3, #0
   15790:	e5852004 	str	r2, [r5, #4]
   15794:	1a00000c 	bne	157cc <abort+0xb4>
   15798:	e3a02001 	mov	r2, #1
   1579c:	e585200c 	str	r2, [r5, #12]
   157a0:	e1a0200d 	mov	r2, sp
   157a4:	e28d1080 	add	r1, sp, #128	; 0x80
   157a8:	e5213004 	str	r3, [r1, #-4]!
   157ac:	e1510002 	cmp	r1, r2
   157b0:	1afffffc 	bne	157a8 <abort+0x90>
   157b4:	e59d3000 	ldr	r3, [sp]
   157b8:	e3a02000 	mov	r2, #0
   157bc:	e3833020 	orr	r3, r3, #32
   157c0:	e3a00001 	mov	r0, #1
   157c4:	e58d3000 	str	r3, [sp]
   157c8:	eb00879f 	bl	3764c <__sigprocmask>
   157cc:	e595300c 	ldr	r3, [r5, #12]
   157d0:	e3530001 	cmp	r3, #1
   157d4:	0a000009 	beq	15800 <abort+0xe8>
   157d8:	e3530002 	cmp	r3, #2
   157dc:	0a000025 	beq	15878 <abort+0x160>
   157e0:	e595300c 	ldr	r3, [r5, #12]
   157e4:	e3530003 	cmp	r3, #3
   157e8:	0a000038 	beq	158d0 <abort+0x1b8>
   157ec:	e3530004 	cmp	r3, #4
   157f0:	0a000033 	beq	158c4 <abort+0x1ac>
   157f4:	e3530005 	cmp	r3, #5
   157f8:	0a000054 	beq	15950 <abort+0x238>
   157fc:	e7f000f0 	udf	#0
   15800:	e3a02000 	mov	r2, #0
   15804:	e5953004 	ldr	r3, [r5, #4]
   15808:	e585200c 	str	r2, [r5, #12]
   1580c:	e2433001 	sub	r3, r3, #1
   15810:	e1530002 	cmp	r3, r2
   15814:	e5853004 	str	r3, [r5, #4]
   15818:	0a000032 	beq	158e8 <abort+0x1d0>
   1581c:	e3a00006 	mov	r0, #6
   15820:	eb0086f8 	bl	37408 <raise>
   15824:	e5953008 	ldr	r3, [r5, #8]
   15828:	e1530006 	cmp	r3, r6
   1582c:	0a00000e 	beq	1586c <abort+0x154>
   15830:	e3a01001 	mov	r1, #1
   15834:	e59f213c 	ldr	r2, [pc, #316]	; 15978 <abort+0x260>
   15838:	e3a04000 	mov	r4, #0
   1583c:	e5923000 	ldr	r3, [r2]
   15840:	e1530004 	cmp	r3, r4
   15844:	1a000005 	bne	15860 <abort+0x148>
   15848:	e1a00004 	mov	r0, r4
   1584c:	e3e03a0f 	mvn	r3, #61440	; 0xf000
   15850:	e1a0e00f 	mov	lr, pc
   15854:	e243f03f 	sub	pc, r3, #63	; 0x3f
   15858:	3afffff7 	bcc	1583c <abort+0x124>
   1585c:	e1a03004 	mov	r3, r4
   15860:	e1530004 	cmp	r3, r4
   15864:	1a000040 	bne	1596c <abort+0x254>
   15868:	e5856008 	str	r6, [r5, #8]
   1586c:	e5953004 	ldr	r3, [r5, #4]
   15870:	e2833001 	add	r3, r3, #1
   15874:	e5853004 	str	r3, [r5, #4]
   15878:	e3a03003 	mov	r3, #3
   1587c:	e3a0208c 	mov	r2, #140	; 0x8c
   15880:	e3a01000 	mov	r1, #0
   15884:	e28d0080 	add	r0, sp, #128	; 0x80
   15888:	e585300c 	str	r3, [r5, #12]
   1588c:	eb00460b 	bl	270c0 <memset>
   15890:	e3e01000 	mvn	r1, #0
   15894:	e28d3f41 	add	r3, sp, #260	; 0x104
   15898:	e28d2084 	add	r2, sp, #132	; 0x84
   1589c:	e5231004 	str	r1, [r3, #-4]!
   158a0:	e1530002 	cmp	r3, r2
   158a4:	1afffffc 	bne	1589c <abort+0x184>
   158a8:	e3a03000 	mov	r3, #0
   158ac:	e28d1080 	add	r1, sp, #128	; 0x80
   158b0:	e1a02003 	mov	r2, r3
   158b4:	e3a00006 	mov	r0, #6
   158b8:	e58d3104 	str	r3, [sp, #260]	; 0x104
   158bc:	eb008755 	bl	37618 <__sigaction>
   158c0:	eaffffc6 	b	157e0 <abort+0xc8>
   158c4:	e3a03005 	mov	r3, #5
   158c8:	e585300c 	str	r3, [r5, #12]
   158cc:	e7f000f0 	udf	#0
   158d0:	e3a03004 	mov	r3, #4
   158d4:	e3a00006 	mov	r0, #6
   158d8:	e585300c 	str	r3, [r5, #12]
   158dc:	eb0086c9 	bl	37408 <raise>
   158e0:	e595300c 	ldr	r3, [r5, #12]
   158e4:	eaffffc0 	b	157ec <abort+0xd4>
   158e8:	e59f8088 	ldr	r8, [pc, #136]	; 15978 <abort+0x260>
   158ec:	e5853008 	str	r3, [r5, #8]
   158f0:	e5957000 	ldr	r7, [r5]
   158f4:	e3a01000 	mov	r1, #0
   158f8:	e1a04007 	mov	r4, r7
   158fc:	e1a02008 	mov	r2, r8
   15900:	e5923000 	ldr	r3, [r2]
   15904:	e1530004 	cmp	r3, r4
   15908:	1a000005 	bne	15924 <abort+0x20c>
   1590c:	e1a00004 	mov	r0, r4
   15910:	e3e03a0f 	mvn	r3, #61440	; 0xf000
   15914:	e1a0e00f 	mov	lr, pc
   15918:	e243f03f 	sub	pc, r3, #63	; 0x3f
   1591c:	3afffff7 	bcc	15900 <abort+0x1e8>
   15920:	e1a03004 	mov	r3, r4
   15924:	e1570003 	cmp	r7, r3
   15928:	1afffff0 	bne	158f0 <abort+0x1d8>
   1592c:	e3570001 	cmp	r7, #1
   15930:	daffffb9 	ble	1581c <abort+0x104>
   15934:	e59f003c 	ldr	r0, [pc, #60]	; 15978 <abort+0x260>
   15938:	e3a01081 	mov	r1, #129	; 0x81
   1593c:	e3a02001 	mov	r2, #1
   15940:	e3a03000 	mov	r3, #0
   15944:	e3a070f0 	mov	r7, #240	; 0xf0
   15948:	ef000000 	svc	0x00000000
   1594c:	eaffffb2 	b	1581c <abort+0x104>
   15950:	e3a03006 	mov	r3, #6
   15954:	e3a0007f 	mov	r0, #127	; 0x7f
   15958:	e585300c 	str	r3, [r5, #12]
   1595c:	eb0048e4 	bl	27cf4 <_exit>
   15960:	e1a00005 	mov	r0, r5
   15964:	eb0053cc 	bl	2a89c <__lll_lock_wait_private>
   15968:	eaffff83 	b	1577c <abort+0x64>
   1596c:	e1a00002 	mov	r0, r2
   15970:	eb0053c9 	bl	2a89c <__lll_lock_wait_private>
   15974:	eaffffbb 	b	15868 <abort+0x150>
   15978:	000871a8 	.word	0x000871a8
   1597c:	00085b98 	.word	0x00085b98

00015980 <msort_with_tmp.part.0>:
   15980:	e92d4ff0 	push	{r4, r5, r6, r7, r8, r9, sl, fp, lr}
   15984:	e1a03002 	mov	r3, r2
   15988:	e24dd01c 	sub	sp, sp, #28
   1598c:	e58d2008 	str	r2, [sp, #8]
   15990:	e1a02001 	mov	r2, r1
   15994:	e5904000 	ldr	r4, [r0]
   15998:	e1a0a0a3 	lsr	sl, r3, #1
   1599c:	e0222a94 	mla	r2, r4, sl, r2
   159a0:	e35a0001 	cmp	sl, #1
   159a4:	e1a08000 	mov	r8, r0
   159a8:	e58d1004 	str	r1, [sp, #4]
   159ac:	e043500a 	sub	r5, r3, sl
   159b0:	e1a04002 	mov	r4, r2
   159b4:	8a00009b 	bhi	15c28 <msort_with_tmp.part.0+0x2a8>
   159b8:	e3550001 	cmp	r5, #1
   159bc:	8a00009d 	bhi	15c38 <msort_with_tmp.part.0+0x2b8>
   159c0:	e29a2000 	adds	r2, sl, #0
   159c4:	e5983008 	ldr	r3, [r8, #8]
   159c8:	e5981004 	ldr	r1, [r8, #4]
   159cc:	13a02001 	movne	r2, #1
   159d0:	e3550000 	cmp	r5, #0
   159d4:	03a02000 	moveq	r2, #0
   159d8:	e5986010 	ldr	r6, [r8, #16]
   159dc:	e5989000 	ldr	r9, [r8]
   159e0:	e58d3000 	str	r3, [sp]
   159e4:	e598b00c 	ldr	fp, [r8, #12]
   159e8:	e3510003 	cmp	r1, #3
   159ec:	979ff101 	ldrls	pc, [pc, r1, lsl #2]
   159f0:	ea000095 	b	15c4c <msort_with_tmp.part.0+0x2cc>
   159f4:	00015b68 	.word	0x00015b68
   159f8:	00015ad4 	.word	0x00015ad4
   159fc:	00015a04 	.word	0x00015a04
   15a00:	00015bc8 	.word	0x00015bc8
   15a04:	e3e02003 	mvn	r2, #3
   15a08:	e35a0000 	cmp	sl, #0
   15a0c:	13550000 	cmpne	r5, #0
   15a10:	e0423009 	sub	r3, r2, r9
   15a14:	e58d300c 	str	r3, [sp, #12]
   15a18:	e2693004 	rsb	r3, r9, #4
   15a1c:	e58d8014 	str	r8, [sp, #20]
   15a20:	e59d7004 	ldr	r7, [sp, #4]
   15a24:	e1a0800b 	mov	r8, fp
   15a28:	e58d3010 	str	r3, [sp, #16]
   15a2c:	e59db000 	ldr	fp, [sp]
   15a30:	0a00001c 	beq	15aa8 <msort_with_tmp.part.0+0x128>
   15a34:	e1a02008 	mov	r2, r8
   15a38:	e1a01004 	mov	r1, r4
   15a3c:	e1a00007 	mov	r0, r7
   15a40:	e12fff3b 	blx	fp
   15a44:	e086c009 	add	ip, r6, r9
   15a48:	e3500000 	cmp	r0, #0
   15a4c:	d1a02007 	movle	r2, r7
   15a50:	c1a02004 	movgt	r2, r4
   15a54:	d24aa001 	suble	sl, sl, #1
   15a58:	d0877009 	addle	r7, r7, r9
   15a5c:	c2455001 	subgt	r5, r5, #1
   15a60:	c0844009 	addgt	r4, r4, r9
   15a64:	e156000c 	cmp	r6, ip
   15a68:	2a00000a 	bcs	15a98 <msort_with_tmp.part.0+0x118>
   15a6c:	e59d3010 	ldr	r3, [sp, #16]
   15a70:	e2630003 	rsb	r0, r3, #3
   15a74:	e3c00003 	bic	r0, r0, #3
   15a78:	e59d300c 	ldr	r3, [sp, #12]
   15a7c:	e2800004 	add	r0, r0, #4
   15a80:	e0820000 	add	r0, r2, r0
   15a84:	e083100c 	add	r1, r3, ip
   15a88:	e4923004 	ldr	r3, [r2], #4
   15a8c:	e1520000 	cmp	r2, r0
   15a90:	e5a13004 	str	r3, [r1, #4]!
   15a94:	1afffffb 	bne	15a88 <msort_with_tmp.part.0+0x108>
   15a98:	e35a0000 	cmp	sl, #0
   15a9c:	13550000 	cmpne	r5, #0
   15aa0:	e1a0600c 	mov	r6, ip
   15aa4:	1affffe2 	bne	15a34 <msort_with_tmp.part.0+0xb4>
   15aa8:	e59d8014 	ldr	r8, [sp, #20]
   15aac:	e35a0000 	cmp	sl, #0
   15ab0:	1a000027 	bne	15b54 <msort_with_tmp.part.0+0x1d4>
   15ab4:	e59d3008 	ldr	r3, [sp, #8]
   15ab8:	e5981010 	ldr	r1, [r8, #16]
   15abc:	e0433005 	sub	r3, r3, r5
   15ac0:	e0020399 	mul	r2, r9, r3
   15ac4:	e59d0004 	ldr	r0, [sp, #4]
   15ac8:	e28dd01c 	add	sp, sp, #28
   15acc:	e8bd4ff0 	pop	{r4, r5, r6, r7, r8, r9, sl, fp, lr}
   15ad0:	ea0045ba 	b	271c0 <memcpy>
   15ad4:	e3520000 	cmp	r2, #0
   15ad8:	e59d7004 	ldr	r7, [sp, #4]
   15adc:	0afffff2 	beq	15aac <msort_with_tmp.part.0+0x12c>
   15ae0:	e58d800c 	str	r8, [sp, #12]
   15ae4:	e1a08007 	mov	r8, r7
   15ae8:	e1a0700b 	mov	r7, fp
   15aec:	e59db000 	ldr	fp, [sp]
   15af0:	ea000006 	b	15b10 <msort_with_tmp.part.0+0x190>
   15af4:	e2455001 	sub	r5, r5, #1
   15af8:	e35a0000 	cmp	sl, #0
   15afc:	13550000 	cmpne	r5, #0
   15b00:	e8b40003 	ldm	r4!, {r0, r1}
   15b04:	e2866008 	add	r6, r6, #8
   15b08:	e9060003 	stmdb	r6, {r0, r1}
   15b0c:	0a00000c 	beq	15b44 <msort_with_tmp.part.0+0x1c4>
   15b10:	e1a02007 	mov	r2, r7
   15b14:	e1a01004 	mov	r1, r4
   15b18:	e1a00008 	mov	r0, r8
   15b1c:	e12fff3b 	blx	fp
   15b20:	e3500000 	cmp	r0, #0
   15b24:	cafffff2 	bgt	15af4 <msort_with_tmp.part.0+0x174>
   15b28:	e8b80003 	ldm	r8!, {r0, r1}
   15b2c:	e24aa001 	sub	sl, sl, #1
   15b30:	e35a0000 	cmp	sl, #0
   15b34:	13550000 	cmpne	r5, #0
   15b38:	e8860003 	stm	r6, {r0, r1}
   15b3c:	e2866008 	add	r6, r6, #8
   15b40:	1afffff2 	bne	15b10 <msort_with_tmp.part.0+0x190>
   15b44:	e1a07008 	mov	r7, r8
   15b48:	e59d800c 	ldr	r8, [sp, #12]
   15b4c:	e35a0000 	cmp	sl, #0
   15b50:	0affffd7 	beq	15ab4 <msort_with_tmp.part.0+0x134>
   15b54:	e002099a 	mul	r2, sl, r9
   15b58:	e1a01007 	mov	r1, r7
   15b5c:	e1a00006 	mov	r0, r6
   15b60:	eb004596 	bl	271c0 <memcpy>
   15b64:	eaffffd2 	b	15ab4 <msort_with_tmp.part.0+0x134>
   15b68:	e3520000 	cmp	r2, #0
   15b6c:	e59d7004 	ldr	r7, [sp, #4]
   15b70:	0affffcd 	beq	15aac <msort_with_tmp.part.0+0x12c>
   15b74:	e58d800c 	str	r8, [sp, #12]
   15b78:	e1a08007 	mov	r8, r7
   15b7c:	e1a0700b 	mov	r7, fp
   15b80:	e59db000 	ldr	fp, [sp]
   15b84:	e1a02007 	mov	r2, r7
   15b88:	e1a01004 	mov	r1, r4
   15b8c:	e1a00008 	mov	r0, r8
   15b90:	e12fff3b 	blx	fp
   15b94:	e3500000 	cmp	r0, #0
   15b98:	d24aa001 	suble	sl, sl, #1
   15b9c:	c2455001 	subgt	r5, r5, #1
   15ba0:	d4982004 	ldrle	r2, [r8], #4
   15ba4:	c4942004 	ldrgt	r2, [r4], #4
   15ba8:	e35a0000 	cmp	sl, #0
   15bac:	13550000 	cmpne	r5, #0
   15bb0:	e5862000 	str	r2, [r6]
   15bb4:	e2866004 	add	r6, r6, #4
   15bb8:	1afffff1 	bne	15b84 <msort_with_tmp.part.0+0x204>
   15bbc:	e1a07008 	mov	r7, r8
   15bc0:	e59d800c 	ldr	r8, [sp, #12]
   15bc4:	eaffffe0 	b	15b4c <msort_with_tmp.part.0+0x1cc>
   15bc8:	e3520000 	cmp	r2, #0
   15bcc:	e59d7004 	ldr	r7, [sp, #4]
   15bd0:	0affffb5 	beq	15aac <msort_with_tmp.part.0+0x12c>
   15bd4:	e58d800c 	str	r8, [sp, #12]
   15bd8:	e1a08007 	mov	r8, r7
   15bdc:	e1a0700b 	mov	r7, fp
   15be0:	e59db000 	ldr	fp, [sp]
   15be4:	e1a02007 	mov	r2, r7
   15be8:	e5941000 	ldr	r1, [r4]
   15bec:	e5980000 	ldr	r0, [r8]
   15bf0:	e12fff3b 	blx	fp
   15bf4:	e3500000 	cmp	r0, #0
   15bf8:	d24aa001 	suble	sl, sl, #1
   15bfc:	c2455001 	subgt	r5, r5, #1
   15c00:	d4982004 	ldrle	r2, [r8], #4
   15c04:	c4942004 	ldrgt	r2, [r4], #4
   15c08:	e35a0000 	cmp	sl, #0
   15c0c:	13550000 	cmpne	r5, #0
   15c10:	e5862000 	str	r2, [r6]
   15c14:	e2866004 	add	r6, r6, #4
   15c18:	1afffff1 	bne	15be4 <msort_with_tmp.part.0+0x264>
   15c1c:	e1a07008 	mov	r7, r8
   15c20:	e59d800c 	ldr	r8, [sp, #12]
   15c24:	eaffffc8 	b	15b4c <msort_with_tmp.part.0+0x1cc>
   15c28:	e1a0200a 	mov	r2, sl
   15c2c:	ebffff53 	bl	15980 <msort_with_tmp.part.0>
   15c30:	e3550001 	cmp	r5, #1
   15c34:	9affff61 	bls	159c0 <msort_with_tmp.part.0+0x40>
   15c38:	e1a02005 	mov	r2, r5
   15c3c:	e1a01004 	mov	r1, r4
   15c40:	e1a00008 	mov	r0, r8
   15c44:	ebffff4d 	bl	15980 <msort_with_tmp.part.0>
   15c48:	eaffff5c 	b	159c0 <msort_with_tmp.part.0+0x40>
   15c4c:	e59d7004 	ldr	r7, [sp, #4]
   15c50:	e35a0000 	cmp	sl, #0
   15c54:	13550000 	cmpne	r5, #0
   15c58:	0affff93 	beq	15aac <msort_with_tmp.part.0+0x12c>
   15c5c:	e1a0200b 	mov	r2, fp
   15c60:	e1a01004 	mov	r1, r4
   15c64:	e1a00007 	mov	r0, r7
   15c68:	e59d3000 	ldr	r3, [sp]
   15c6c:	e12fff33 	blx	r3
   15c70:	e3500000 	cmp	r0, #0
   15c74:	e1a02009 	mov	r2, r9
   15c78:	e1a00006 	mov	r0, r6
   15c7c:	da000008 	ble	15ca4 <msort_with_tmp.part.0+0x324>
   15c80:	e1a01004 	mov	r1, r4
   15c84:	e2455001 	sub	r5, r5, #1
   15c88:	eb00452b 	bl	2713c <__mempcpy>
   15c8c:	e35a0000 	cmp	sl, #0
   15c90:	13550000 	cmpne	r5, #0
   15c94:	e1a06000 	mov	r6, r0
   15c98:	e0844009 	add	r4, r4, r9
   15c9c:	1affffee 	bne	15c5c <msort_with_tmp.part.0+0x2dc>
   15ca0:	eaffff81 	b	15aac <msort_with_tmp.part.0+0x12c>
   15ca4:	e1a01007 	mov	r1, r7
   15ca8:	eb004523 	bl	2713c <__mempcpy>
   15cac:	e24aa001 	sub	sl, sl, #1
   15cb0:	e1a06000 	mov	r6, r0
   15cb4:	e0877009 	add	r7, r7, r9
   15cb8:	eaffffe4 	b	15c50 <msort_with_tmp.part.0+0x2d0>

00015cbc <__qsort_r>:
   15cbc:	e92d4ff0 	push	{r4, r5, r6, r7, r8, r9, sl, fp, lr}
   15cc0:	e1a05002 	mov	r5, r2
   15cc4:	e28db020 	add	fp, sp, #32
   15cc8:	e3520020 	cmp	r2, #32
   15ccc:	e24dd03c 	sub	sp, sp, #60	; 0x3c
   15cd0:	e50b1048 	str	r1, [fp, #-72]	; 0xffffffb8
   15cd4:	90010195 	mulls	r1, r5, r1
   15cd8:	91a04001 	movls	r4, r1
   15cdc:	e59f22d4 	ldr	r2, [pc, #724]	; 15fb8 <__qsort_r+0x2fc>
   15ce0:	e1a07003 	mov	r7, r3
   15ce4:	851b3048 	ldrhi	r3, [fp, #-72]	; 0xffffffb8
   15ce8:	e5922000 	ldr	r2, [r2]
   15cec:	80854183 	addhi	r4, r5, r3, lsl #3
   15cf0:	e3540b01 	cmp	r4, #1024	; 0x400
   15cf4:	e50b0040 	str	r0, [fp, #-64]	; 0xffffffc0
   15cf8:	e50b2028 	str	r2, [fp, #-40]	; 0xffffffd8
   15cfc:	e59b6004 	ldr	r6, [fp, #4]
   15d00:	2a000055 	bcs	15e5c <__qsort_r+0x1a0>
   15d04:	e284400e 	add	r4, r4, #14
   15d08:	e3c44007 	bic	r4, r4, #7
   15d0c:	e04dd004 	sub	sp, sp, r4
   15d10:	e28d3008 	add	r3, sp, #8
   15d14:	e50b302c 	str	r3, [fp, #-44]	; 0xffffffd4
   15d18:	e3a03000 	mov	r3, #0
   15d1c:	e50b3050 	str	r3, [fp, #-80]	; 0xffffffb0
   15d20:	e3a03004 	mov	r3, #4
   15d24:	e3550020 	cmp	r5, #32
   15d28:	e50b503c 	str	r5, [fp, #-60]	; 0xffffffc4
   15d2c:	e50b7034 	str	r7, [fp, #-52]	; 0xffffffcc
   15d30:	e50b6030 	str	r6, [fp, #-48]	; 0xffffffd0
   15d34:	e50b3038 	str	r3, [fp, #-56]	; 0xffffffc8
   15d38:	9a00005d 	bls	15eb4 <__qsort_r+0x1f8>
   15d3c:	e51b3048 	ldr	r3, [fp, #-72]	; 0xffffffb8
   15d40:	e51b702c 	ldr	r7, [fp, #-44]	; 0xffffffd4
   15d44:	e1a01103 	lsl	r1, r3, #2
   15d48:	e0877001 	add	r7, r7, r1
   15d4c:	e0870001 	add	r0, r7, r1
   15d50:	e1570000 	cmp	r7, r0
   15d54:	e50b004c 	str	r0, [fp, #-76]	; 0xffffffb4
   15d58:	21a01007 	movcs	r1, r7
   15d5c:	2a000007 	bcs	15d80 <__qsort_r+0xc4>
   15d60:	e1a02007 	mov	r2, r7
   15d64:	e51b3040 	ldr	r3, [fp, #-64]	; 0xffffffc0
   15d68:	e4823004 	str	r3, [r2], #4
   15d6c:	e1500002 	cmp	r0, r2
   15d70:	e0833005 	add	r3, r3, r5
   15d74:	8afffffb 	bhi	15d68 <__qsort_r+0xac>
   15d78:	e51b302c 	ldr	r3, [fp, #-44]	; 0xffffffd4
   15d7c:	e0831001 	add	r1, r3, r1
   15d80:	e3a02004 	mov	r2, #4
   15d84:	e3a03003 	mov	r3, #3
   15d88:	e51b0048 	ldr	r0, [fp, #-72]	; 0xffffffb8
   15d8c:	e50b203c 	str	r2, [fp, #-60]	; 0xffffffc4
   15d90:	e3500001 	cmp	r0, #1
   15d94:	e50b3038 	str	r3, [fp, #-56]	; 0xffffffc8
   15d98:	8a00007b 	bhi	15f8c <__qsort_r+0x2d0>
   15d9c:	e51b3048 	ldr	r3, [fp, #-72]	; 0xffffffb8
   15da0:	e3530000 	cmp	r3, #0
   15da4:	0a000054 	beq	15efc <__qsort_r+0x240>
   15da8:	e3a03000 	mov	r3, #0
   15dac:	e51b8040 	ldr	r8, [fp, #-64]	; 0xffffffc0
   15db0:	e50b3044 	str	r3, [fp, #-68]	; 0xffffffbc
   15db4:	ea000006 	b	15dd4 <__qsort_r+0x118>
   15db8:	e51b3044 	ldr	r3, [fp, #-68]	; 0xffffffbc
   15dbc:	e51b2048 	ldr	r2, [fp, #-72]	; 0xffffffb8
   15dc0:	e2833001 	add	r3, r3, #1
   15dc4:	e1520003 	cmp	r2, r3
   15dc8:	e50b3044 	str	r3, [fp, #-68]	; 0xffffffbc
   15dcc:	e0888005 	add	r8, r8, r5
   15dd0:	0a000049 	beq	15efc <__qsort_r+0x240>
   15dd4:	e51b3044 	ldr	r3, [fp, #-68]	; 0xffffffbc
   15dd8:	e7974103 	ldr	r4, [r7, r3, lsl #2]
   15ddc:	e1540008 	cmp	r4, r8
   15de0:	0afffff4 	beq	15db8 <__qsort_r+0xfc>
   15de4:	e1a02005 	mov	r2, r5
   15de8:	e1a01008 	mov	r1, r8
   15dec:	e51b004c 	ldr	r0, [fp, #-76]	; 0xffffffb4
   15df0:	eb0044f2 	bl	271c0 <memcpy>
   15df4:	e1a09008 	mov	r9, r8
   15df8:	e51ba044 	ldr	sl, [fp, #-68]	; 0xffffffbc
   15dfc:	ea000000 	b	15e04 <__qsort_r+0x148>
   15e00:	e1a04003 	mov	r4, r3
   15e04:	e51b3040 	ldr	r3, [fp, #-64]	; 0xffffffc0
   15e08:	e1a01005 	mov	r1, r5
   15e0c:	e0440003 	sub	r0, r4, r3
   15e10:	eb011f69 	bl	5dbbc <__udivsi3>
   15e14:	e1a06000 	mov	r6, r0
   15e18:	e787910a 	str	r9, [r7, sl, lsl #2]
   15e1c:	e1a00009 	mov	r0, r9
   15e20:	e1a02005 	mov	r2, r5
   15e24:	e1a01004 	mov	r1, r4
   15e28:	eb0044e4 	bl	271c0 <memcpy>
   15e2c:	e7973106 	ldr	r3, [r7, r6, lsl #2]
   15e30:	e0870106 	add	r0, r7, r6, lsl #2
   15e34:	e1530008 	cmp	r3, r8
   15e38:	e1a0a006 	mov	sl, r6
   15e3c:	e1a09004 	mov	r9, r4
   15e40:	1affffee 	bne	15e00 <__qsort_r+0x144>
   15e44:	e5804000 	str	r4, [r0]
   15e48:	e1a02005 	mov	r2, r5
   15e4c:	e1a00004 	mov	r0, r4
   15e50:	e51b104c 	ldr	r1, [fp, #-76]	; 0xffffffb4
   15e54:	eb0044d9 	bl	271c0 <memcpy>
   15e58:	eaffffd6 	b	15db8 <__qsort_r+0xfc>
   15e5c:	e59f8158 	ldr	r8, [pc, #344]	; 15fbc <__qsort_r+0x300>
   15e60:	e5981000 	ldr	r1, [r8]
   15e64:	e3510000 	cmp	r1, #0
   15e68:	0a000035 	beq	15f44 <__qsort_r+0x288>
   15e6c:	e1a00004 	mov	r0, r4
   15e70:	eb011f51 	bl	5dbbc <__udivsi3>
   15e74:	e5983004 	ldr	r3, [r8, #4]
   15e78:	e1500003 	cmp	r0, r3
   15e7c:	9a000021 	bls	15f08 <__qsort_r+0x24c>
   15e80:	e58d6000 	str	r6, [sp]
   15e84:	e1a03007 	mov	r3, r7
   15e88:	e1a02005 	mov	r2, r5
   15e8c:	e51b1048 	ldr	r1, [fp, #-72]	; 0xffffffb8
   15e90:	e51b0040 	ldr	r0, [fp, #-64]	; 0xffffffc0
   15e94:	eb00862b 	bl	37748 <_quicksort>
   15e98:	e59f3118 	ldr	r3, [pc, #280]	; 15fb8 <__qsort_r+0x2fc>
   15e9c:	e51b2028 	ldr	r2, [fp, #-40]	; 0xffffffd8
   15ea0:	e5933000 	ldr	r3, [r3]
   15ea4:	e1520003 	cmp	r2, r3
   15ea8:	1a000041 	bne	15fb4 <__qsort_r+0x2f8>
   15eac:	e24bd020 	sub	sp, fp, #32
   15eb0:	e8bd8ff0 	pop	{r4, r5, r6, r7, r8, r9, sl, fp, pc}
   15eb4:	e3150003 	tst	r5, #3
   15eb8:	1a000008 	bne	15ee0 <__qsort_r+0x224>
   15ebc:	e51b3040 	ldr	r3, [fp, #-64]	; 0xffffffc0
   15ec0:	e2133003 	ands	r3, r3, #3
   15ec4:	1a000005 	bne	15ee0 <__qsort_r+0x224>
   15ec8:	e3550004 	cmp	r5, #4
   15ecc:	0a000002 	beq	15edc <__qsort_r+0x220>
   15ed0:	e3550008 	cmp	r5, #8
   15ed4:	0a000030 	beq	15f9c <__qsort_r+0x2e0>
   15ed8:	e3a03002 	mov	r3, #2
   15edc:	e50b3038 	str	r3, [fp, #-56]	; 0xffffffc8
